ARM GAS  C:\Users\enar\AppData\Local\Temp\ccpIdrGY.s 			page 1


   1              		.syntax unified
   2              		.cpu cortex-m3
   3              		.fpu softvfp
   4              		.eabi_attribute 20, 1
   5              		.eabi_attribute 21, 1
   6              		.eabi_attribute 23, 3
   7              		.eabi_attribute 24, 1
   8              		.eabi_attribute 25, 1
   9              		.eabi_attribute 26, 1
  10              		.eabi_attribute 30, 1
  11              		.eabi_attribute 34, 1
  12              		.eabi_attribute 18, 4
  13              		.thumb
  14              		.syntax unified
  15              		.file	"func.c"
  16              		.text
  17              	.Ltext0:
  18              		.cfi_sections	.debug_frame
  19              		.section	.text.startBlink,"ax",%progbits
  20              		.align	2
  21              		.global	startBlink
  22              		.thumb
  23              		.thumb_func
  24              		.type	startBlink, %function
  25              	startBlink:
  26              	.LFB85:
  27              		.file 1 "func.c"
   1:func.c        **** #include <project.h>
   2:func.c        **** #include <stdio.h>
   3:func.c        **** #include "FreeRTOS.h"
   4:func.c        **** #include "task.h"
   5:func.c        **** #include "Motor.h"
   6:func.c        **** #include "Ultra.h"
   7:func.c        **** #include "Nunchuk.h"
   8:func.c        **** #include "Reflectance.h"
   9:func.c        **** #include "Gyro.h"
  10:func.c        **** #include "Accel_magnet.h"
  11:func.c        **** #include "LSM303D.h"
  12:func.c        **** #include "IR.h"
  13:func.c        **** #include "Beep.h"
  14:func.c        **** #include "mqtt_sender.h"
  15:func.c        **** #include <time.h>
  16:func.c        **** #include <sys/time.h>
  17:func.c        **** #include "serial1.h"
  18:func.c        **** #include <unistd.h>
  19:func.c        **** 
  20:func.c        **** void startBlink (int ammount, int onTimeMs,int offTimeMs);
  21:func.c        **** /**Starts to blink the blue led on Zumo. Takes in ammount of blinks,
  22:func.c        **** time of led on in ms and delay while the led is swithced off
  23:func.c        **** */
  24:func.c        **** void startBlink (int ammount, int onTimeMs,int offTimeMs) {
  28              		.loc 1 24 0
  29              		.cfi_startproc
  30              		@ args = 0, pretend = 0, frame = 0
  31              		@ frame_needed = 0, uses_anonymous_args = 0
  32              	.LVL0:
  33 0000 F8B5     		push	{r3, r4, r5, r6, r7, lr}
ARM GAS  C:\Users\enar\AppData\Local\Temp\ccpIdrGY.s 			page 2


  34              		.cfi_def_cfa_offset 24
  35              		.cfi_offset 3, -24
  36              		.cfi_offset 4, -20
  37              		.cfi_offset 5, -16
  38              		.cfi_offset 6, -12
  39              		.cfi_offset 7, -8
  40              		.cfi_offset 14, -4
  41 0002 0546     		mov	r5, r0
  42 0004 0F46     		mov	r7, r1
  43 0006 1646     		mov	r6, r2
  44              	.LVL1:
  45              	.LBB2:
  25:func.c        ****     for (int i = 0; i < ammount; i++){
  46              		.loc 1 25 0
  47 0008 0024     		movs	r4, #0
  48 000a 0CE0     		b	.L2
  49              	.LVL2:
  50              	.L3:
  26:func.c        ****         BatteryLed_Write(1);
  51              		.loc 1 26 0 discriminator 3
  52 000c 0120     		movs	r0, #1
  53 000e FFF7FEFF 		bl	BatteryLed_Write
  54              	.LVL3:
  27:func.c        ****         vTaskDelay(onTimeMs);
  55              		.loc 1 27 0 discriminator 3
  56 0012 3846     		mov	r0, r7
  57 0014 FFF7FEFF 		bl	vTaskDelay
  58              	.LVL4:
  28:func.c        ****         BatteryLed_Write(0);
  59              		.loc 1 28 0 discriminator 3
  60 0018 0020     		movs	r0, #0
  61 001a FFF7FEFF 		bl	BatteryLed_Write
  62              	.LVL5:
  29:func.c        ****         vTaskDelay(offTimeMs);
  63              		.loc 1 29 0 discriminator 3
  64 001e 3046     		mov	r0, r6
  65 0020 FFF7FEFF 		bl	vTaskDelay
  66              	.LVL6:
  25:func.c        ****         BatteryLed_Write(1);
  67              		.loc 1 25 0 discriminator 3
  68 0024 0134     		adds	r4, r4, #1
  69              	.LVL7:
  70              	.L2:
  25:func.c        ****         BatteryLed_Write(1);
  71              		.loc 1 25 0 is_stmt 0 discriminator 1
  72 0026 AC42     		cmp	r4, r5
  73 0028 F0DB     		blt	.L3
  74              	.LBE2:
  30:func.c        ****     }
  31:func.c        **** } 
  75              		.loc 1 31 0 is_stmt 1
  76 002a F8BD     		pop	{r3, r4, r5, r6, r7, pc}
  77              		.cfi_endproc
  78              	.LFE85:
  79              		.size	startBlink, .-startBlink
  80              		.global	__aeabi_i2d
  81              		.global	__aeabi_dmul
ARM GAS  C:\Users\enar\AppData\Local\Temp\ccpIdrGY.s 			page 3


  82              		.global	__aeabi_d2f
  83              		.global	__aeabi_f2d
  84              		.section	.text.getBatterVoltage,"ax",%progbits
  85              		.align	2
  86              		.global	getBatterVoltage
  87              		.thumb
  88              		.thumb_func
  89              		.type	getBatterVoltage, %function
  90              	getBatterVoltage:
  91              	.LFB86:
  32:func.c        **** 
  33:func.c        **** //battery level//
  34:func.c        **** float getBatterVoltage()
  35:func.c        **** {
  92              		.loc 1 35 0
  93              		.cfi_startproc
  94              		@ args = 0, pretend = 0, frame = 0
  95              		@ frame_needed = 0, uses_anonymous_args = 0
  96 0000 10B5     		push	{r4, lr}
  97              		.cfi_def_cfa_offset 8
  98              		.cfi_offset 4, -8
  99              		.cfi_offset 14, -4
  36:func.c        ****     ADC_Battery_Start();        
 100              		.loc 1 36 0
 101 0002 FFF7FEFF 		bl	ADC_Battery_Start
 102              	.LVL8:
  37:func.c        ****     int16 adcresult = 0;
  38:func.c        ****     float volts = 0.0;
  39:func.c        ****     
  40:func.c        ****     ADC_Battery_StartConvert(); // start sampling
 103              		.loc 1 40 0
 104 0006 FFF7FEFF 		bl	ADC_Battery_StartConvert
 105              	.LVL9:
  41:func.c        ****         if(ADC_Battery_IsEndConversion(ADC_Battery_WAIT_FOR_RESULT)) {   // wait for ADC converted 
 106              		.loc 1 41 0
 107 000a 0020     		movs	r0, #0
 108 000c FFF7FEFF 		bl	ADC_Battery_IsEndConversion
 109              	.LVL10:
 110 0010 C0B1     		cbz	r0, .L7
  42:func.c        ****             adcresult = ADC_Battery_GetResult16(); // get the ADC value (0 - 4095)
 111              		.loc 1 42 0
 112 0012 FFF7FEFF 		bl	ADC_Battery_GetResult16
 113              	.LVL11:
  43:func.c        ****             // convert value to Volts
  44:func.c        ****             // you need to implement the conversion
  45:func.c        ****             volts = 4095/adcresult*4.8;
 114              		.loc 1 45 0
 115 0016 40F6FF73 		movw	r3, #4095
 116 001a 93FBF0F0 		sdiv	r0, r3, r0
 117              	.LVL12:
 118 001e FFF7FEFF 		bl	__aeabi_i2d
 119              	.LVL13:
 120 0022 09A3     		adr	r3, .L9
 121 0024 D3E90023 		ldrd	r2, [r3]
 122 0028 FFF7FEFF 		bl	__aeabi_dmul
 123              	.LVL14:
 124 002c FFF7FEFF 		bl	__aeabi_d2f
ARM GAS  C:\Users\enar\AppData\Local\Temp\ccpIdrGY.s 			page 4


 125              	.LVL15:
 126 0030 0446     		mov	r4, r0
 127              	.LVL16:
  46:func.c        ****             printf("battery volate is: %.2f", volts);
 128              		.loc 1 46 0
 129 0032 FFF7FEFF 		bl	__aeabi_f2d
 130              	.LVL17:
 131 0036 0246     		mov	r2, r0
 132 0038 0B46     		mov	r3, r1
 133 003a 0548     		ldr	r0, .L9+8
 134 003c FFF7FEFF 		bl	printf
 135              	.LVL18:
  47:func.c        ****             return volts;    
 136              		.loc 1 47 0
 137 0040 2046     		mov	r0, r4
 138 0042 10BD     		pop	{r4, pc}
 139              	.LVL19:
 140              	.L7:
  48:func.c        ****         }
  49:func.c        ****         
  50:func.c        ****         return 0.0;
 141              		.loc 1 50 0
 142 0044 0020     		movs	r0, #0
  51:func.c        ****  }   
 143              		.loc 1 51 0
 144 0046 10BD     		pop	{r4, pc}
 145              	.L10:
 146              		.align	3
 147              	.L9:
 148 0048 33333333 		.word	858993459
 149 004c 33331340 		.word	1075000115
 150 0050 00000000 		.word	.LC0
 151              		.cfi_endproc
 152              	.LFE86:
 153              		.size	getBatterVoltage, .-getBatterVoltage
 154              		.section	.text.askAge,"ax",%progbits
 155              		.align	2
 156              		.global	askAge
 157              		.thumb
 158              		.thumb_func
 159              		.type	askAge, %function
 160              	askAge:
 161              	.LFB87:
  52:func.c        **** 
  53:func.c        **** // Weeek 2 assignment 2
  54:func.c        **** void askAge() {
 162              		.loc 1 54 0
 163              		.cfi_startproc
 164              		@ args = 0, pretend = 0, frame = 8
 165              		@ frame_needed = 0, uses_anonymous_args = 0
 166 0000 10B5     		push	{r4, lr}
 167              		.cfi_def_cfa_offset 8
 168              		.cfi_offset 4, -8
 169              		.cfi_offset 14, -4
 170 0002 82B0     		sub	sp, sp, #8
 171              		.cfi_def_cfa_offset 16
  55:func.c        ****     TickType_t xStart, xEnd, xResult;
ARM GAS  C:\Users\enar\AppData\Local\Temp\ccpIdrGY.s 			page 5


  56:func.c        ****     int age;
  57:func.c        ****     printf("What is your age?");
 172              		.loc 1 57 0
 173 0004 2448     		ldr	r0, .L22
 174 0006 FFF7FEFF 		bl	printf
 175              	.LVL20:
  58:func.c        ****     xStart = xTaskGetTickCount();
 176              		.loc 1 58 0
 177 000a FFF7FEFF 		bl	xTaskGetTickCount
 178              	.LVL21:
 179 000e 0446     		mov	r4, r0
 180              	.LVL22:
  59:func.c        ****     scanf("%d", &age);
 181              		.loc 1 59 0
 182 0010 01A9     		add	r1, sp, #4
 183 0012 2248     		ldr	r0, .L22+4
 184              	.LVL23:
 185 0014 FFF7FEFF 		bl	scanf
 186              	.LVL24:
  60:func.c        ****     xEnd = xTaskGetTickCount();
 187              		.loc 1 60 0
 188 0018 FFF7FEFF 		bl	xTaskGetTickCount
 189              	.LVL25:
  61:func.c        ****     xResult = xEnd - xStart;
 190              		.loc 1 61 0
 191 001c 001B     		subs	r0, r0, r4
 192              	.LVL26:
  62:func.c        ****     //printf("It took you %d", xResult);
  63:func.c        ****     if (xResult <= 3000) {
 193              		.loc 1 63 0
 194 001e 40F6B833 		movw	r3, #3000
 195 0022 9842     		cmp	r0, r3
 196 0024 10D8     		bhi	.L12
  64:func.c        ****         if(age < 22) {
 197              		.loc 1 64 0
 198 0026 019B     		ldr	r3, [sp, #4]
 199 0028 152B     		cmp	r3, #21
 200 002a 03DC     		bgt	.L13
  65:func.c        ****             printf("Super fast dude!");
 201              		.loc 1 65 0
 202 002c 1C48     		ldr	r0, .L22+8
 203              	.LVL27:
 204 002e FFF7FEFF 		bl	printf
 205              	.LVL28:
 206 0032 2EE0     		b	.L11
 207              	.LVL29:
 208              	.L13:
  66:func.c        ****         }
  67:func.c        ****         else if(age < 51) {
 209              		.loc 1 67 0
 210 0034 322B     		cmp	r3, #50
 211 0036 03DC     		bgt	.L15
  68:func.c        ****             printf("be quick or be dead");
 212              		.loc 1 68 0
 213 0038 1A48     		ldr	r0, .L22+12
 214              	.LVL30:
 215 003a FFF7FEFF 		bl	printf
ARM GAS  C:\Users\enar\AppData\Local\Temp\ccpIdrGY.s 			page 6


 216              	.LVL31:
 217 003e 28E0     		b	.L11
 218              	.LVL32:
 219              	.L15:
  69:func.c        ****         }
  70:func.c        ****          else{
  71:func.c        ****             printf("Still going strong");
 220              		.loc 1 71 0
 221 0040 1948     		ldr	r0, .L22+16
 222              	.LVL33:
 223 0042 FFF7FEFF 		bl	printf
 224              	.LVL34:
 225 0046 24E0     		b	.L11
 226              	.LVL35:
 227              	.L12:
  72:func.c        ****         }
  73:func.c        ****     } else if (xResult <= 5000) {
 228              		.loc 1 73 0
 229 0048 41F28833 		movw	r3, #5000
 230 004c 9842     		cmp	r0, r3
 231 004e 10D8     		bhi	.L16
  74:func.c        ****         if(age < 22) {
 232              		.loc 1 74 0
 233 0050 019B     		ldr	r3, [sp, #4]
 234 0052 152B     		cmp	r3, #21
 235 0054 03DC     		bgt	.L17
  75:func.c        ****             printf("Se mdeiocre.");
 236              		.loc 1 75 0
 237 0056 1548     		ldr	r0, .L22+20
 238              	.LVL36:
 239 0058 FFF7FEFF 		bl	printf
 240              	.LVL37:
 241 005c 19E0     		b	.L11
 242              	.LVL38:
 243              	.L17:
  76:func.c        ****         }
  77:func.c        ****         else if(age < 51) {
 244              		.loc 1 77 0
 245 005e 322B     		cmp	r3, #50
 246 0060 03DC     		bgt	.L18
  78:func.c        ****             printf("you\'re so average.");
 247              		.loc 1 78 0
 248 0062 1348     		ldr	r0, .L22+24
 249              	.LVL39:
 250 0064 FFF7FEFF 		bl	printf
 251              	.LVL40:
 252 0068 13E0     		b	.L11
 253              	.LVL41:
 254              	.L18:
  79:func.c        ****         }
  80:func.c        ****          else{
  81:func.c        ****             printf("You are doing ok for your age.");
 255              		.loc 1 81 0
 256 006a 1248     		ldr	r0, .L22+28
 257              	.LVL42:
 258 006c FFF7FEFF 		bl	printf
 259              	.LVL43:
ARM GAS  C:\Users\enar\AppData\Local\Temp\ccpIdrGY.s 			page 7


 260 0070 0FE0     		b	.L11
 261              	.LVL44:
 262              	.L16:
  82:func.c        ****         }
  83:func.c        ****     } else {
  84:func.c        ****         if(age < 22) {
 263              		.loc 1 84 0
 264 0072 019B     		ldr	r3, [sp, #4]
 265 0074 152B     		cmp	r3, #21
 266 0076 03DC     		bgt	.L19
  85:func.c        ****             printf("My granny is faster than you!");
 267              		.loc 1 85 0
 268 0078 0F48     		ldr	r0, .L22+32
 269              	.LVL45:
 270 007a FFF7FEFF 		bl	printf
 271              	.LVL46:
 272 007e 08E0     		b	.L11
 273              	.LVL47:
 274              	.L19:
  86:func.c        ****         }
  87:func.c        ****         else if(age < 51) {
 275              		.loc 1 87 0
 276 0080 322B     		cmp	r3, #50
 277 0082 03DC     		bgt	.L20
  88:func.c        ****             printf("Have you been smoking something illegal?");
 278              		.loc 1 88 0
 279 0084 0D48     		ldr	r0, .L22+36
 280              	.LVL48:
 281 0086 FFF7FEFF 		bl	printf
 282              	.LVL49:
 283 008a 02E0     		b	.L11
 284              	.LVL50:
 285              	.L20:
  89:func.c        ****         }
  90:func.c        ****          else{
  91:func.c        ****             printf("Do they still allow you to drive?");
 286              		.loc 1 91 0
 287 008c 0C48     		ldr	r0, .L22+40
 288              	.LVL51:
 289 008e FFF7FEFF 		bl	printf
 290              	.LVL52:
 291              	.L11:
  92:func.c        ****         }
  93:func.c        ****     }
  94:func.c        **** }...
 292              		.loc 1 94 0
 293 0092 02B0     		add	sp, sp, #8
 294              		.cfi_def_cfa_offset 8
 295              		@ sp needed
 296 0094 10BD     		pop	{r4, pc}
 297              	.LVL53:
 298              	.L23:
 299 0096 00BF     		.align	2
 300              	.L22:
 301 0098 18000000 		.word	.LC1
 302 009c 2C000000 		.word	.LC2
 303 00a0 30000000 		.word	.LC3
ARM GAS  C:\Users\enar\AppData\Local\Temp\ccpIdrGY.s 			page 8


 304 00a4 44000000 		.word	.LC4
 305 00a8 58000000 		.word	.LC5
 306 00ac 6C000000 		.word	.LC6
 307 00b0 7C000000 		.word	.LC7
 308 00b4 90000000 		.word	.LC8
 309 00b8 B0000000 		.word	.LC9
 310 00bc D0000000 		.word	.LC10
 311 00c0 FC000000 		.word	.LC11
 312              		.cfi_endproc
 313              	.LFE87:
 314              		.size	askAge, .-askAge
 315              		.section	.rodata.str1.4,"aMS",%progbits,1
 316              		.align	2
 317              	.LC0:
 318 0000 62617474 		.ascii	"battery volate is: %.2f\000"
 318      65727920 
 318      766F6C61 
 318      74652069 
 318      733A2025 
 319              	.LC1:
 320 0018 57686174 		.ascii	"What is your age?\000"
 320      20697320 
 320      796F7572 
 320      20616765 
 320      3F00
 321 002a 0000     		.space	2
 322              	.LC2:
 323 002c 256400   		.ascii	"%d\000"
 324 002f 00       		.space	1
 325              	.LC3:
 326 0030 53757065 		.ascii	"Super fast dude!\000"
 326      72206661 
 326      73742064 
 326      75646521 
 326      00
 327 0041 000000   		.space	3
 328              	.LC4:
 329 0044 62652071 		.ascii	"be quick or be dead\000"
 329      7569636B 
 329      206F7220 
 329      62652064 
 329      65616400 
 330              	.LC5:
 331 0058 5374696C 		.ascii	"Still going strong\000"
 331      6C20676F 
 331      696E6720 
 331      7374726F 
 331      6E6700
 332 006b 00       		.space	1
 333              	.LC6:
 334 006c 5365206D 		.ascii	"Se mdeiocre.\000"
 334      6465696F 
 334      6372652E 
 334      00
 335 0079 000000   		.space	3
 336              	.LC7:
 337 007c 796F7527 		.ascii	"you're so average.\000"
ARM GAS  C:\Users\enar\AppData\Local\Temp\ccpIdrGY.s 			page 9


 337      72652073 
 337      6F206176 
 337      65726167 
 337      652E00
 338 008f 00       		.space	1
 339              	.LC8:
 340 0090 596F7520 		.ascii	"You are doing ok for your age.\000"
 340      61726520 
 340      646F696E 
 340      67206F6B 
 340      20666F72 
 341 00af 00       		.space	1
 342              	.LC9:
 343 00b0 4D792067 		.ascii	"My granny is faster than you!\000"
 343      72616E6E 
 343      79206973 
 343      20666173 
 343      74657220 
 344 00ce 0000     		.space	2
 345              	.LC10:
 346 00d0 48617665 		.ascii	"Have you been smoking something illegal?\000"
 346      20796F75 
 346      20626565 
 346      6E20736D 
 346      6F6B696E 
 347 00f9 000000   		.space	3
 348              	.LC11:
 349 00fc 446F2074 		.ascii	"Do they still allow you to drive?\000"
 349      68657920 
 349      7374696C 
 349      6C20616C 
 349      6C6F7720 
 350              		.text
 351              	.Letext0:
 352              		.file 2 "c:\\program files (x86)\\cypress\\psoc creator\\4.2\\psoc creator\\import\\gnu\\arm\\5.4.
 353              		.file 3 "c:\\program files (x86)\\cypress\\psoc creator\\4.2\\psoc creator\\import\\gnu\\arm\\5.4.
 354              		.file 4 "Generated_Source\\PSoC5/cytypes.h"
 355              		.file 5 "..\\FreeRTOS\\Source\\portable\\GCC\\ARM_CM3/portmacro.h"
 356              		.file 6 "Generated_Source\\PSoC5/BatteryLed.h"
 357              		.file 7 "..\\FreeRTOS\\Source\\include/task.h"
 358              		.file 8 "Generated_Source\\PSoC5/ADC_Battery.h"
 359              		.file 9 "c:\\program files (x86)\\cypress\\psoc creator\\4.2\\psoc creator\\import\\gnu\\arm\\5.4.
 360              		.file 10 "Generated_Source\\PSoC5/core_cm3.h"