ARM GAS  C:\Users\ENARMA~1\AppData\Local\Temp\cc1DSOlY.s 			page 1


   1              		.syntax unified
   2              		.cpu cortex-m3
   3              		.fpu softvfp
   4              		.eabi_attribute 20, 1
   5              		.eabi_attribute 21, 1
   6              		.eabi_attribute 23, 3
   7              		.eabi_attribute 24, 1
   8              		.eabi_attribute 25, 1
   9              		.eabi_attribute 26, 1
  10              		.eabi_attribute 30, 1
  11              		.eabi_attribute 34, 1
  12              		.eabi_attribute 18, 4
  13              		.thumb
  14              		.syntax unified
  15              		.file	"main.c"
  16              		.text
  17              	.Ltext0:
  18              		.cfi_sections	.debug_frame
  19              		.section	.text.startBlink,"ax",%progbits
  20              		.align	2
  21              		.global	startBlink
  22              		.thumb
  23              		.thumb_func
  24              		.type	startBlink, %function
  25              	startBlink:
  26              	.LFB85:
  27              		.file 1 "myfuncs.h"
   1:myfuncs.h     **** #include <stdio.h>
   2:myfuncs.h     **** #include "FreeRTOS.h"
   3:myfuncs.h     **** #include "task.h"
   4:myfuncs.h     **** #include "LSM303D.h"
   5:myfuncs.h     **** #include "Motor.h"
   6:myfuncs.h     **** #include "Reflectance.h"
   7:myfuncs.h     **** #include "IR.h"
   8:myfuncs.h     **** #include "Beep.h"
   9:myfuncs.h     **** #include <stdlib.h>
  10:myfuncs.h     **** 
  11:myfuncs.h     **** 
  12:myfuncs.h     **** 
  13:myfuncs.h     **** 
  14:myfuncs.h     **** void startBlink (int ammount, int onTimeMs,int offTimeMs);
  15:myfuncs.h     **** /**Starts to blink the blue led on Zumo. Takes in ammount of blinks,
  16:myfuncs.h     **** time of led on in ms and delay while the led is swithced off
  17:myfuncs.h     **** */
  18:myfuncs.h     **** void startBlink (int ammount, int onTimeMs,int offTimeMs) {
  28              		.loc 1 18 0
  29              		.cfi_startproc
  30              		@ args = 0, pretend = 0, frame = 0
  31              		@ frame_needed = 0, uses_anonymous_args = 0
  32              	.LVL0:
  33 0000 F8B5     		push	{r3, r4, r5, r6, r7, lr}
  34              		.cfi_def_cfa_offset 24
  35              		.cfi_offset 3, -24
  36              		.cfi_offset 4, -20
  37              		.cfi_offset 5, -16
  38              		.cfi_offset 6, -12
  39              		.cfi_offset 7, -8
ARM GAS  C:\Users\ENARMA~1\AppData\Local\Temp\cc1DSOlY.s 			page 2


  40              		.cfi_offset 14, -4
  41 0002 0546     		mov	r5, r0
  42 0004 0F46     		mov	r7, r1
  43 0006 1646     		mov	r6, r2
  44              	.LVL1:
  45              	.LBB2:
  19:myfuncs.h     ****     for (int i = 0; i < ammount; i++){
  46              		.loc 1 19 0
  47 0008 0024     		movs	r4, #0
  48 000a 0CE0     		b	.L2
  49              	.LVL2:
  50              	.L3:
  20:myfuncs.h     ****         BatteryLed_Write(1);
  51              		.loc 1 20 0 discriminator 3
  52 000c 0120     		movs	r0, #1
  53 000e FFF7FEFF 		bl	BatteryLed_Write
  54              	.LVL3:
  21:myfuncs.h     ****         vTaskDelay(onTimeMs);
  55              		.loc 1 21 0 discriminator 3
  56 0012 3846     		mov	r0, r7
  57 0014 FFF7FEFF 		bl	vTaskDelay
  58              	.LVL4:
  22:myfuncs.h     ****         BatteryLed_Write(0);
  59              		.loc 1 22 0 discriminator 3
  60 0018 0020     		movs	r0, #0
  61 001a FFF7FEFF 		bl	BatteryLed_Write
  62              	.LVL5:
  23:myfuncs.h     ****         vTaskDelay(offTimeMs);
  63              		.loc 1 23 0 discriminator 3
  64 001e 3046     		mov	r0, r6
  65 0020 FFF7FEFF 		bl	vTaskDelay
  66              	.LVL6:
  19:myfuncs.h     ****         BatteryLed_Write(1);
  67              		.loc 1 19 0 discriminator 3
  68 0024 0134     		adds	r4, r4, #1
  69              	.LVL7:
  70              	.L2:
  19:myfuncs.h     ****         BatteryLed_Write(1);
  71              		.loc 1 19 0 is_stmt 0 discriminator 1
  72 0026 AC42     		cmp	r4, r5
  73 0028 F0DB     		blt	.L3
  74              	.LBE2:
  24:myfuncs.h     ****     }
  25:myfuncs.h     **** } 
  75              		.loc 1 25 0 is_stmt 1
  76 002a F8BD     		pop	{r3, r4, r5, r6, r7, pc}
  77              		.cfi_endproc
  78              	.LFE85:
  79              		.size	startBlink, .-startBlink
  80              		.global	__aeabi_i2d
  81              		.global	__aeabi_ddiv
  82              		.global	__aeabi_d2f
  83              		.global	__aeabi_f2d
  84              		.section	.text.getBatterVoltage,"ax",%progbits
  85              		.align	2
  86              		.global	getBatterVoltage
  87              		.thumb
ARM GAS  C:\Users\ENARMA~1\AppData\Local\Temp\cc1DSOlY.s 			page 3


  88              		.thumb_func
  89              		.type	getBatterVoltage, %function
  90              	getBatterVoltage:
  91              	.LFB86:
  26:myfuncs.h     **** 
  27:myfuncs.h     **** //battery level//
  28:myfuncs.h     **** float getBatterVoltage(long runningNumber)
  29:myfuncs.h     **** {
  92              		.loc 1 29 0
  93              		.cfi_startproc
  94              		@ args = 0, pretend = 0, frame = 0
  95              		@ frame_needed = 0, uses_anonymous_args = 0
  96              	.LVL8:
  97 0000 38B5     		push	{r3, r4, r5, lr}
  98              		.cfi_def_cfa_offset 16
  99              		.cfi_offset 3, -16
 100              		.cfi_offset 4, -12
 101              		.cfi_offset 5, -8
 102              		.cfi_offset 14, -4
 103 0002 0546     		mov	r5, r0
  30:myfuncs.h     ****     ADC_Battery_Start();        
 104              		.loc 1 30 0
 105 0004 FFF7FEFF 		bl	ADC_Battery_Start
 106              	.LVL9:
  31:myfuncs.h     ****     int16 adcresult = 0;
  32:myfuncs.h     ****     float volts = 0.0;
  33:myfuncs.h     ****         
  34:myfuncs.h     ****     ADC_Battery_StartConvert(); // start sampling
 107              		.loc 1 34 0
 108 0008 FFF7FEFF 		bl	ADC_Battery_StartConvert
 109              	.LVL10:
  35:myfuncs.h     ****         if(ADC_Battery_IsEndConversion(ADC_Battery_WAIT_FOR_RESULT)) {   // wait for ADC converted 
 110              		.loc 1 35 0
 111 000c 0020     		movs	r0, #0
 112 000e FFF7FEFF 		bl	ADC_Battery_IsEndConversion
 113              	.LVL11:
 114 0012 A0B1     		cbz	r0, .L7
  36:myfuncs.h     ****             adcresult = ADC_Battery_GetResult16(); // get the ADC value (0 - 4095)
 115              		.loc 1 36 0
 116 0014 FFF7FEFF 		bl	ADC_Battery_GetResult16
 117              	.LVL12:
  37:myfuncs.h     ****             // convert value to Volts
  38:myfuncs.h     ****             // you need to implement the conversion
  39:myfuncs.h     ****             volts = adcresult / 546.0;
 118              		.loc 1 39 0
 119 0018 FFF7FEFF 		bl	__aeabi_i2d
 120              	.LVL13:
 121 001c 0022     		movs	r2, #0
 122 001e 094B     		ldr	r3, .L9
 123 0020 FFF7FEFF 		bl	__aeabi_ddiv
 124              	.LVL14:
 125 0024 FFF7FEFF 		bl	__aeabi_d2f
 126              	.LVL15:
 127 0028 0446     		mov	r4, r0
 128              	.LVL16:
  40:myfuncs.h     ****             printf("\n%li: Battery volatage is: %.2fv", runningNumber, volts);
 129              		.loc 1 40 0
ARM GAS  C:\Users\ENARMA~1\AppData\Local\Temp\cc1DSOlY.s 			page 4


 130 002a FFF7FEFF 		bl	__aeabi_f2d
 131              	.LVL17:
 132 002e 0246     		mov	r2, r0
 133 0030 0B46     		mov	r3, r1
 134 0032 2946     		mov	r1, r5
 135 0034 0448     		ldr	r0, .L9+4
 136 0036 FFF7FEFF 		bl	printf
 137              	.LVL18:
  41:myfuncs.h     ****                  
  42:myfuncs.h     ****             return volts;  
 138              		.loc 1 42 0
 139 003a 2046     		mov	r0, r4
 140 003c 38BD     		pop	{r3, r4, r5, pc}
 141              	.LVL19:
 142              	.L7:
  43:myfuncs.h     ****          
  44:myfuncs.h     ****         }
  45:myfuncs.h     ****     return volts;
 143              		.loc 1 45 0
 144 003e 0020     		movs	r0, #0
  46:myfuncs.h     ****  }   
 145              		.loc 1 46 0
 146 0040 38BD     		pop	{r3, r4, r5, pc}
 147              	.LVL20:
 148              	.L10:
 149 0042 00BF     		.align	2
 150              	.L9:
 151 0044 00108140 		.word	1082200064
 152 0048 00000000 		.word	.LC0
 153              		.cfi_endproc
 154              	.LFE86:
 155              		.size	getBatterVoltage, .-getBatterVoltage
 156              		.section	.text.askAge,"ax",%progbits
 157              		.align	2
 158              		.global	askAge
 159              		.thumb
 160              		.thumb_func
 161              		.type	askAge, %function
 162              	askAge:
 163              	.LFB87:
  47:myfuncs.h     **** 
  48:myfuncs.h     **** // Weeek 2 assignment 2
  49:myfuncs.h     **** void askAge() {
 164              		.loc 1 49 0
 165              		.cfi_startproc
 166              		@ args = 0, pretend = 0, frame = 8
 167              		@ frame_needed = 0, uses_anonymous_args = 0
 168 0000 10B5     		push	{r4, lr}
 169              		.cfi_def_cfa_offset 8
 170              		.cfi_offset 4, -8
 171              		.cfi_offset 14, -4
 172 0002 82B0     		sub	sp, sp, #8
 173              		.cfi_def_cfa_offset 16
  50:myfuncs.h     ****     TickType_t xStart, xEnd, xResult;
  51:myfuncs.h     ****     int age;
  52:myfuncs.h     ****     printf("\nWhat is your age? ");
 174              		.loc 1 52 0
ARM GAS  C:\Users\ENARMA~1\AppData\Local\Temp\cc1DSOlY.s 			page 5


 175 0004 2448     		ldr	r0, .L22
 176 0006 FFF7FEFF 		bl	printf
 177              	.LVL21:
  53:myfuncs.h     ****     xStart = xTaskGetTickCount();
 178              		.loc 1 53 0
 179 000a FFF7FEFF 		bl	xTaskGetTickCount
 180              	.LVL22:
 181 000e 0446     		mov	r4, r0
 182              	.LVL23:
  54:myfuncs.h     ****     scanf("%d", &age);
 183              		.loc 1 54 0
 184 0010 01A9     		add	r1, sp, #4
 185 0012 2248     		ldr	r0, .L22+4
 186              	.LVL24:
 187 0014 FFF7FEFF 		bl	scanf
 188              	.LVL25:
  55:myfuncs.h     ****     xEnd = xTaskGetTickCount();
 189              		.loc 1 55 0
 190 0018 FFF7FEFF 		bl	xTaskGetTickCount
 191              	.LVL26:
  56:myfuncs.h     ****     xResult = xEnd - xStart;
 192              		.loc 1 56 0
 193 001c 001B     		subs	r0, r0, r4
 194              	.LVL27:
  57:myfuncs.h     ****     //printf("It took you %d", xResult);
  58:myfuncs.h     ****     if (xResult <= 3000) {
 195              		.loc 1 58 0
 196 001e 40F6B833 		movw	r3, #3000
 197 0022 9842     		cmp	r0, r3
 198 0024 10D8     		bhi	.L12
  59:myfuncs.h     ****         if(age < 22) {
 199              		.loc 1 59 0
 200 0026 019B     		ldr	r3, [sp, #4]
 201 0028 152B     		cmp	r3, #21
 202 002a 03DC     		bgt	.L13
  60:myfuncs.h     ****             printf("Super fast dude!");
 203              		.loc 1 60 0
 204 002c 1C48     		ldr	r0, .L22+8
 205              	.LVL28:
 206 002e FFF7FEFF 		bl	printf
 207              	.LVL29:
 208 0032 2EE0     		b	.L11
 209              	.LVL30:
 210              	.L13:
  61:myfuncs.h     ****         }
  62:myfuncs.h     ****         else if(age < 51) {
 211              		.loc 1 62 0
 212 0034 322B     		cmp	r3, #50
 213 0036 03DC     		bgt	.L15
  63:myfuncs.h     ****             printf("be quick or be dead");
 214              		.loc 1 63 0
 215 0038 1A48     		ldr	r0, .L22+12
 216              	.LVL31:
 217 003a FFF7FEFF 		bl	printf
 218              	.LVL32:
 219 003e 28E0     		b	.L11
 220              	.LVL33:
ARM GAS  C:\Users\ENARMA~1\AppData\Local\Temp\cc1DSOlY.s 			page 6


 221              	.L15:
  64:myfuncs.h     ****         }
  65:myfuncs.h     ****          else{
  66:myfuncs.h     ****             printf("Still going strong");
 222              		.loc 1 66 0
 223 0040 1948     		ldr	r0, .L22+16
 224              	.LVL34:
 225 0042 FFF7FEFF 		bl	printf
 226              	.LVL35:
 227 0046 24E0     		b	.L11
 228              	.LVL36:
 229              	.L12:
  67:myfuncs.h     ****         }
  68:myfuncs.h     ****     } else if (xResult <= 5000) {
 230              		.loc 1 68 0
 231 0048 41F28833 		movw	r3, #5000
 232 004c 9842     		cmp	r0, r3
 233 004e 10D8     		bhi	.L16
  69:myfuncs.h     ****         if(age < 22) {
 234              		.loc 1 69 0
 235 0050 019B     		ldr	r3, [sp, #4]
 236 0052 152B     		cmp	r3, #21
 237 0054 03DC     		bgt	.L17
  70:myfuncs.h     ****             printf("Se mdeiocre.");
 238              		.loc 1 70 0
 239 0056 1548     		ldr	r0, .L22+20
 240              	.LVL37:
 241 0058 FFF7FEFF 		bl	printf
 242              	.LVL38:
 243 005c 19E0     		b	.L11
 244              	.LVL39:
 245              	.L17:
  71:myfuncs.h     ****         }
  72:myfuncs.h     ****         else if(age < 51) {
 246              		.loc 1 72 0
 247 005e 322B     		cmp	r3, #50
 248 0060 03DC     		bgt	.L18
  73:myfuncs.h     ****             printf("you\'re so average.");
 249              		.loc 1 73 0
 250 0062 1348     		ldr	r0, .L22+24
 251              	.LVL40:
 252 0064 FFF7FEFF 		bl	printf
 253              	.LVL41:
 254 0068 13E0     		b	.L11
 255              	.LVL42:
 256              	.L18:
  74:myfuncs.h     ****         }
  75:myfuncs.h     ****          else{
  76:myfuncs.h     ****             printf("You are doing ok for your age.");
 257              		.loc 1 76 0
 258 006a 1248     		ldr	r0, .L22+28
 259              	.LVL43:
 260 006c FFF7FEFF 		bl	printf
 261              	.LVL44:
 262 0070 0FE0     		b	.L11
 263              	.LVL45:
 264              	.L16:
ARM GAS  C:\Users\ENARMA~1\AppData\Local\Temp\cc1DSOlY.s 			page 7


  77:myfuncs.h     ****         }
  78:myfuncs.h     ****     } else {
  79:myfuncs.h     ****         if(age < 22) {
 265              		.loc 1 79 0
 266 0072 019B     		ldr	r3, [sp, #4]
 267 0074 152B     		cmp	r3, #21
 268 0076 03DC     		bgt	.L19
  80:myfuncs.h     ****             printf("My granny is faster than you!");
 269              		.loc 1 80 0
 270 0078 0F48     		ldr	r0, .L22+32
 271              	.LVL46:
 272 007a FFF7FEFF 		bl	printf
 273              	.LVL47:
 274 007e 08E0     		b	.L11
 275              	.LVL48:
 276              	.L19:
  81:myfuncs.h     ****         }
  82:myfuncs.h     ****         else if(age < 51) {
 277              		.loc 1 82 0
 278 0080 322B     		cmp	r3, #50
 279 0082 03DC     		bgt	.L20
  83:myfuncs.h     ****             printf("Have you been smoking something illegal?");
 280              		.loc 1 83 0
 281 0084 0D48     		ldr	r0, .L22+36
 282              	.LVL49:
 283 0086 FFF7FEFF 		bl	printf
 284              	.LVL50:
 285 008a 02E0     		b	.L11
 286              	.LVL51:
 287              	.L20:
  84:myfuncs.h     ****         }
  85:myfuncs.h     ****          else{
  86:myfuncs.h     ****             printf("Do they still allow you to drive?");
 288              		.loc 1 86 0
 289 008c 0C48     		ldr	r0, .L22+40
 290              	.LVL52:
 291 008e FFF7FEFF 		bl	printf
 292              	.LVL53:
 293              	.L11:
  87:myfuncs.h     ****         }
  88:myfuncs.h     ****     }
  89:myfuncs.h     **** }
 294              		.loc 1 89 0
 295 0092 02B0     		add	sp, sp, #8
 296              		.cfi_def_cfa_offset 8
 297              		@ sp needed
 298 0094 10BD     		pop	{r4, pc}
 299              	.LVL54:
 300              	.L23:
 301 0096 00BF     		.align	2
 302              	.L22:
 303 0098 24000000 		.word	.LC1
 304 009c 38000000 		.word	.LC2
 305 00a0 3C000000 		.word	.LC3
 306 00a4 50000000 		.word	.LC4
 307 00a8 64000000 		.word	.LC5
 308 00ac 78000000 		.word	.LC6
ARM GAS  C:\Users\ENARMA~1\AppData\Local\Temp\cc1DSOlY.s 			page 8


 309 00b0 88000000 		.word	.LC7
 310 00b4 9C000000 		.word	.LC8
 311 00b8 BC000000 		.word	.LC9
 312 00bc DC000000 		.word	.LC10
 313 00c0 08010000 		.word	.LC11
 314              		.cfi_endproc
 315              	.LFE87:
 316              		.size	askAge, .-askAge
 317              		.section	.text.readAcc,"ax",%progbits
 318              		.align	2
 319              		.global	readAcc
 320              		.thumb
 321              		.thumb_func
 322              		.type	readAcc, %function
 323              	readAcc:
 324              	.LFB88:
  90:myfuncs.h     **** struct accData_ readAcc (int delay) {
 325              		.loc 1 90 0
 326              		.cfi_startproc
 327              		@ args = 0, pretend = 0, frame = 8
 328              		@ frame_needed = 0, uses_anonymous_args = 0
 329              	.LVL55:
 330 0000 30B5     		push	{r4, r5, lr}
 331              		.cfi_def_cfa_offset 12
 332              		.cfi_offset 4, -12
 333              		.cfi_offset 5, -8
 334              		.cfi_offset 14, -4
 335 0002 83B0     		sub	sp, sp, #12
 336              		.cfi_def_cfa_offset 24
 337 0004 0446     		mov	r4, r0
 338 0006 0D46     		mov	r5, r1
  91:myfuncs.h     ****     struct accData_ data;
  92:myfuncs.h     ****     LSM303D_Read_Acc(&data);
 339              		.loc 1 92 0
 340 0008 6846     		mov	r0, sp
 341              	.LVL56:
 342 000a FFF7FEFF 		bl	LSM303D_Read_Acc
 343              	.LVL57:
  93:myfuncs.h     ****     vTaskDelay(delay);
 344              		.loc 1 93 0
 345 000e 2846     		mov	r0, r5
 346 0010 FFF7FEFF 		bl	vTaskDelay
 347              	.LVL58:
  94:myfuncs.h     ****     return data;
 348              		.loc 1 94 0
 349 0014 0098     		ldr	r0, [sp]	@ unaligned
 350 0016 2060     		str	r0, [r4]	@ unaligned
 351 0018 BDF80430 		ldrh	r3, [sp, #4]	@ unaligned
 352 001c A380     		strh	r3, [r4, #4]	@ unaligned
  95:myfuncs.h     **** 
  96:myfuncs.h     **** }
 353              		.loc 1 96 0
 354 001e 2046     		mov	r0, r4
 355 0020 03B0     		add	sp, sp, #12
 356              		.cfi_def_cfa_offset 12
 357              		@ sp needed
 358 0022 30BD     		pop	{r4, r5, pc}
ARM GAS  C:\Users\ENARMA~1\AppData\Local\Temp\cc1DSOlY.s 			page 9


 359              		.cfi_endproc
 360              	.LFE88:
 361              		.size	readAcc, .-readAcc
 362              		.section	.text.bumperCar,"ax",%progbits
 363              		.align	2
 364              		.global	bumperCar
 365              		.thumb
 366              		.thumb_func
 367              		.type	bumperCar, %function
 368              	bumperCar:
 369              	.LFB89:
  97:myfuncs.h     **** void bumperCar () {
 370              		.loc 1 97 0
 371              		.cfi_startproc
 372              		@ args = 0, pretend = 0, frame = 8
 373              		@ frame_needed = 0, uses_anonymous_args = 0
 374 0000 00B5     		push	{lr}
 375              		.cfi_def_cfa_offset 4
 376              		.cfi_offset 14, -4
 377 0002 83B0     		sub	sp, sp, #12
 378              		.cfi_def_cfa_offset 16
 379              	.L35:
 380              	.LBB3:
  98:myfuncs.h     ****     
  99:myfuncs.h     ****       // set speed to zero to stop motors
 100:myfuncs.h     ****             
 101:myfuncs.h     ****     while(1) {
 102:myfuncs.h     ****             struct accData_ data = readAcc(50);
 381              		.loc 1 102 0
 382 0004 3221     		movs	r1, #50
 383 0006 6846     		mov	r0, sp
 384 0008 FFF7FEFF 		bl	readAcc
 385              	.LVL59:
 103:myfuncs.h     ****             motor_forward(0,0);
 386              		.loc 1 103 0
 387 000c 0021     		movs	r1, #0
 388 000e 0846     		mov	r0, r1
 389 0010 FFF7FEFF 		bl	motor_forward
 390              	.LVL60:
 104:myfuncs.h     ****             int x = rand() % 3;
 391              		.loc 1 104 0
 392 0014 FFF7FEFF 		bl	rand
 393              	.LVL61:
 394 0018 234B     		ldr	r3, .L37
 395 001a 83FB0023 		smull	r2, r3, r3, r0
 396 001e A3EBE073 		sub	r3, r3, r0, asr #31
 397 0022 03EB4303 		add	r3, r3, r3, lsl #1
 398 0026 C31A     		subs	r3, r0, r3
 399              	.LVL62:
 105:myfuncs.h     ****             switch(x) {
 400              		.loc 1 105 0
 401 0028 012B     		cmp	r3, #1
 402 002a 08D0     		beq	.L28
 403 002c 022B     		cmp	r3, #2
 404 002e 0CD0     		beq	.L29
 405 0030 83B9     		cbnz	r3, .L27
 106:myfuncs.h     ****                 case 0:
ARM GAS  C:\Users\ENARMA~1\AppData\Local\Temp\cc1DSOlY.s 			page 10


 107:myfuncs.h     ****                 motor_turn(200,150,100);
 406              		.loc 1 107 0
 407 0032 6422     		movs	r2, #100
 408 0034 9621     		movs	r1, #150
 409 0036 C820     		movs	r0, #200
 410 0038 FFF7FEFF 		bl	motor_turn
 411              	.LVL63:
 108:myfuncs.h     ****                 break;
 412              		.loc 1 108 0
 413 003c 0AE0     		b	.L27
 414              	.LVL64:
 415              	.L28:
 109:myfuncs.h     ****                 case 1:
 110:myfuncs.h     ****                 motor_turn(150,200,100);
 416              		.loc 1 110 0
 417 003e 6422     		movs	r2, #100
 418 0040 C821     		movs	r1, #200
 419 0042 9620     		movs	r0, #150
 420 0044 FFF7FEFF 		bl	motor_turn
 421              	.LVL65:
 111:myfuncs.h     ****                 break;
 422              		.loc 1 111 0
 423 0048 04E0     		b	.L27
 424              	.LVL66:
 425              	.L29:
 112:myfuncs.h     ****                 case 2:
 113:myfuncs.h     ****                 motor_turn(200,198,100);
 426              		.loc 1 113 0
 427 004a 6422     		movs	r2, #100
 428 004c C621     		movs	r1, #198
 429 004e C820     		movs	r0, #200
 430 0050 FFF7FEFF 		bl	motor_turn
 431              	.LVL67:
 432              	.L27:
 114:myfuncs.h     ****                 break;
 115:myfuncs.h     ****             }
 116:myfuncs.h     ****                  // moving forward
 117:myfuncs.h     ****             if (data.accX < -3000 || data.accY < -3000) {
 433              		.loc 1 117 0
 434 0054 BDF90020 		ldrsh	r2, [sp]
 435 0058 144B     		ldr	r3, .L37+4
 436 005a 9A42     		cmp	r2, r3
 437 005c 03DB     		blt	.L31
 438              		.loc 1 117 0 is_stmt 0 discriminator 1
 439 005e BDF90220 		ldrsh	r2, [sp, #2]
 440 0062 9A42     		cmp	r2, r3
 441 0064 CEDA     		bge	.L35
 442              	.L31:
 443              	.LBB4:
 118:myfuncs.h     ****                 motor_forward(0,0);
 444              		.loc 1 118 0 is_stmt 1
 445 0066 0021     		movs	r1, #0
 446 0068 0846     		mov	r0, r1
 447 006a FFF7FEFF 		bl	motor_forward
 448              	.LVL68:
 119:myfuncs.h     ****                 motor_backward(100,200);
 449              		.loc 1 119 0
ARM GAS  C:\Users\ENARMA~1\AppData\Local\Temp\cc1DSOlY.s 			page 11


 450 006e C821     		movs	r1, #200
 451 0070 6420     		movs	r0, #100
 452 0072 FFF7FEFF 		bl	motor_backward
 453              	.LVL69:
 120:myfuncs.h     ****                 int i = rand() % 2;
 454              		.loc 1 120 0
 455 0076 FFF7FEFF 		bl	rand
 456              	.LVL70:
 457 007a 0D4B     		ldr	r3, .L37+8
 458 007c 1840     		ands	r0, r0, r3
 459 007e 03D5     		bpl	.L33
 460 0080 0138     		subs	r0, r0, #1
 461 0082 60F00100 		orn	r0, r0, #1
 462 0086 0130     		adds	r0, r0, #1
 463              	.L33:
 464              	.LVL71:
 121:myfuncs.h     ****                 if (i==0) {
 465              		.loc 1 121 0
 466 0088 30B9     		cbnz	r0, .L34
 122:myfuncs.h     ****                     motor_turn(100,0,1200);
 467              		.loc 1 122 0
 468 008a 4FF49662 		mov	r2, #1200
 469 008e 0021     		movs	r1, #0
 470 0090 6420     		movs	r0, #100
 471              	.LVL72:
 472 0092 FFF7FEFF 		bl	motor_turn
 473              	.LVL73:
 474 0096 B5E7     		b	.L35
 475              	.LVL74:
 476              	.L34:
 123:myfuncs.h     ****                 } else { 
 124:myfuncs.h     ****                     motor_turn(0,100,1200);
 477              		.loc 1 124 0
 478 0098 4FF49662 		mov	r2, #1200
 479 009c 6421     		movs	r1, #100
 480 009e 0020     		movs	r0, #0
 481              	.LVL75:
 482 00a0 FFF7FEFF 		bl	motor_turn
 483              	.LVL76:
 484              	.LBE4:
 485              	.LBE3:
 125:myfuncs.h     ****                 }
 126:myfuncs.h     ****                 
 127:myfuncs.h     ****             }
 128:myfuncs.h     ****                                            
 129:myfuncs.h     ****     }
 486              		.loc 1 129 0
 487 00a4 AEE7     		b	.L35
 488              	.L38:
 489 00a6 00BF     		.align	2
 490              	.L37:
 491 00a8 56555555 		.word	1431655766
 492 00ac 48F4FFFF 		.word	-3000
 493 00b0 01000080 		.word	-2147483647
 494              		.cfi_endproc
 495              	.LFE89:
 496              		.size	bumperCar, .-bumperCar
ARM GAS  C:\Users\ENARMA~1\AppData\Local\Temp\cc1DSOlY.s 			page 12


 497              		.section	.text.motor_hardTurn,"ax",%progbits
 498              		.align	2
 499              		.global	motor_hardTurn
 500              		.thumb
 501              		.thumb_func
 502              		.type	motor_hardTurn, %function
 503              	motor_hardTurn:
 504              	.LFB90:
 130:myfuncs.h     **** }
 131:myfuncs.h     **** //direction 1 turn to left
 132:myfuncs.h     **** void motor_hardTurn(int direction,uint8 l_speed, uint8 r_speed, uint32 delay)
 133:myfuncs.h     **** {
 505              		.loc 1 133 0
 506              		.cfi_startproc
 507              		@ args = 0, pretend = 0, frame = 0
 508              		@ frame_needed = 0, uses_anonymous_args = 0
 509              	.LVL77:
 510 0000 70B5     		push	{r4, r5, r6, lr}
 511              		.cfi_def_cfa_offset 16
 512              		.cfi_offset 4, -16
 513              		.cfi_offset 5, -12
 514              		.cfi_offset 6, -8
 515              		.cfi_offset 14, -4
 516 0002 0E46     		mov	r6, r1
 517 0004 1546     		mov	r5, r2
 518 0006 1C46     		mov	r4, r3
 134:myfuncs.h     ****     switch (direction) {
 519              		.loc 1 134 0
 520 0008 10B1     		cbz	r0, .L41
 521 000a 0128     		cmp	r0, #1
 522 000c 07D0     		beq	.L42
 523 000e 0CE0     		b	.L40
 524              	.L41:
 135:myfuncs.h     ****         case 0: 
 136:myfuncs.h     ****         MotorDirLeft_Write(1);     
 525              		.loc 1 136 0
 526 0010 0120     		movs	r0, #1
 527              	.LVL78:
 528 0012 FFF7FEFF 		bl	MotorDirLeft_Write
 529              	.LVL79:
 137:myfuncs.h     ****         MotorDirRight_Write(0);
 530              		.loc 1 137 0
 531 0016 0020     		movs	r0, #0
 532 0018 FFF7FEFF 		bl	MotorDirRight_Write
 533              	.LVL80:
 138:myfuncs.h     ****         break;
 534              		.loc 1 138 0
 535 001c 05E0     		b	.L40
 536              	.LVL81:
 537              	.L42:
 139:myfuncs.h     ****         case 1:
 140:myfuncs.h     ****         MotorDirLeft_Write(0);     
 538              		.loc 1 140 0
 539 001e 0020     		movs	r0, #0
 540              	.LVL82:
 541 0020 FFF7FEFF 		bl	MotorDirLeft_Write
 542              	.LVL83:
ARM GAS  C:\Users\ENARMA~1\AppData\Local\Temp\cc1DSOlY.s 			page 13


 141:myfuncs.h     ****         MotorDirRight_Write(1);
 543              		.loc 1 141 0
 544 0024 0120     		movs	r0, #1
 545 0026 FFF7FEFF 		bl	MotorDirRight_Write
 546              	.LVL84:
 547              	.L40:
 142:myfuncs.h     ****         break;
 143:myfuncs.h     ****     }
 144:myfuncs.h     ****     PWM_WriteCompare1(l_speed); 
 548              		.loc 1 144 0
 549 002a 3046     		mov	r0, r6
 550 002c FFF7FEFF 		bl	PWM_WriteCompare1
 551              	.LVL85:
 145:myfuncs.h     ****     PWM_WriteCompare2(r_speed); 
 552              		.loc 1 145 0
 553 0030 2846     		mov	r0, r5
 554 0032 FFF7FEFF 		bl	PWM_WriteCompare2
 555              	.LVL86:
 146:myfuncs.h     ****     vTaskDelay(delay);
 556              		.loc 1 146 0
 557 0036 2046     		mov	r0, r4
 558 0038 FFF7FEFF 		bl	vTaskDelay
 559              	.LVL87:
 560 003c 70BD     		pop	{r4, r5, r6, pc}
 561              		.cfi_endproc
 562              	.LFE90:
 563              		.size	motor_hardTurn, .-motor_hardTurn
 564 003e 00BF     		.section	.text.ReflectorValue,"ax",%progbits
 565              		.align	2
 566              		.global	ReflectorValue
 567              		.thumb
 568              		.thumb_func
 569              		.type	ReflectorValue, %function
 570              	ReflectorValue:
 571              	.LFB91:
 147:myfuncs.h     ****    
 148:myfuncs.h     **** }
 149:myfuncs.h     **** 
 150:myfuncs.h     **** int ReflectorValue() {
 572              		.loc 1 150 0
 573              		.cfi_startproc
 574              		@ args = 0, pretend = 0, frame = 16
 575              		@ frame_needed = 0, uses_anonymous_args = 0
 576 0000 00B5     		push	{lr}
 577              		.cfi_def_cfa_offset 4
 578              		.cfi_offset 14, -4
 579 0002 85B0     		sub	sp, sp, #20
 580              		.cfi_def_cfa_offset 24
 151:myfuncs.h     ****     struct sensors_ dig;
 152:myfuncs.h     ****     reflectance_digital(&dig);
 581              		.loc 1 152 0
 582 0004 01A8     		add	r0, sp, #4
 583 0006 FFF7FEFF 		bl	reflectance_digital
 584              	.LVL88:
 153:myfuncs.h     ****     // Middle
 154:myfuncs.h     ****     if (dig.l3 == 0 && dig.l2 == 0 && dig.l1 == 1 && dig.r1 == 1 && dig.r2 == 0 && dig.r3 == 0) {re
 585              		.loc 1 154 0
ARM GAS  C:\Users\ENARMA~1\AppData\Local\Temp\cc1DSOlY.s 			page 14


 586 000a BDF80430 		ldrh	r3, [sp, #4]
 587 000e 93B9     		cbnz	r3, .L45
 588              		.loc 1 154 0 is_stmt 0 discriminator 1
 589 0010 BDF80620 		ldrh	r2, [sp, #6]
 590 0014 7AB9     		cbnz	r2, .L45
 591              		.loc 1 154 0 discriminator 2
 592 0016 BDF80820 		ldrh	r2, [sp, #8]
 593 001a 012A     		cmp	r2, #1
 594 001c 0BD1     		bne	.L45
 595              		.loc 1 154 0 discriminator 3
 596 001e BDF80A20 		ldrh	r2, [sp, #10]
 597 0022 012A     		cmp	r2, #1
 598 0024 07D1     		bne	.L45
 599              		.loc 1 154 0 discriminator 4
 600 0026 BDF80C20 		ldrh	r2, [sp, #12]
 601 002a 22B9     		cbnz	r2, .L45
 602              		.loc 1 154 0 discriminator 5
 603 002c BDF80E20 		ldrh	r2, [sp, #14]
 604 0030 002A     		cmp	r2, #0
 605 0032 00F08B80 		beq	.L54
 606              	.L45:
 155:myfuncs.h     ****     // Right side turn
 156:myfuncs.h     ****     if (dig.l3 == 0 && dig.l2 == 0 && dig.l1 == 0 && dig.r1 == 1 && dig.r2 == 1 && dig.r3 == 0) {re
 607              		.loc 1 156 0 is_stmt 1
 608 0036 8BB9     		cbnz	r3, .L47
 609              		.loc 1 156 0 is_stmt 0 discriminator 1
 610 0038 BDF80620 		ldrh	r2, [sp, #6]
 611 003c 72B9     		cbnz	r2, .L47
 612              		.loc 1 156 0 discriminator 2
 613 003e BDF80820 		ldrh	r2, [sp, #8]
 614 0042 5AB9     		cbnz	r2, .L47
 615              		.loc 1 156 0 discriminator 3
 616 0044 BDF80A20 		ldrh	r2, [sp, #10]
 617 0048 012A     		cmp	r2, #1
 618 004a 07D1     		bne	.L47
 619              		.loc 1 156 0 discriminator 4
 620 004c BDF80C20 		ldrh	r2, [sp, #12]
 621 0050 012A     		cmp	r2, #1
 622 0052 03D1     		bne	.L47
 623              		.loc 1 156 0 discriminator 5
 624 0054 BDF80E20 		ldrh	r2, [sp, #14]
 625 0058 002A     		cmp	r2, #0
 626 005a 79D0     		beq	.L55
 627              	.L47:
 157:myfuncs.h     ****     if (dig.l3 == 0 && dig.l2 == 0 && dig.l1 == 0 && dig.r1 == 0 && dig.r2 == 1 && dig.r3 == 1) {re
 628              		.loc 1 157 0 is_stmt 1
 629 005c 83B9     		cbnz	r3, .L48
 630              		.loc 1 157 0 is_stmt 0 discriminator 1
 631 005e BDF80620 		ldrh	r2, [sp, #6]
 632 0062 6AB9     		cbnz	r2, .L48
 633              		.loc 1 157 0 discriminator 2
 634 0064 BDF80820 		ldrh	r2, [sp, #8]
 635 0068 52B9     		cbnz	r2, .L48
 636              		.loc 1 157 0 discriminator 3
 637 006a BDF80A20 		ldrh	r2, [sp, #10]
 638 006e 3AB9     		cbnz	r2, .L48
 639              		.loc 1 157 0 discriminator 4
ARM GAS  C:\Users\ENARMA~1\AppData\Local\Temp\cc1DSOlY.s 			page 15


 640 0070 BDF80C20 		ldrh	r2, [sp, #12]
 641 0074 012A     		cmp	r2, #1
 642 0076 03D1     		bne	.L48
 643              		.loc 1 157 0 discriminator 5
 644 0078 BDF80E20 		ldrh	r2, [sp, #14]
 645 007c 012A     		cmp	r2, #1
 646 007e 69D0     		beq	.L56
 647              	.L48:
 158:myfuncs.h     ****     if (dig.l3 == 0 && dig.l2 == 0 && dig.l1 == 0 && dig.r1 == 0 && dig.r2 == 0 && dig.r3 == 1) {re
 648              		.loc 1 158 0 is_stmt 1
 649 0080 7BB9     		cbnz	r3, .L49
 650              		.loc 1 158 0 is_stmt 0 discriminator 1
 651 0082 BDF80620 		ldrh	r2, [sp, #6]
 652 0086 62B9     		cbnz	r2, .L49
 653              		.loc 1 158 0 discriminator 2
 654 0088 BDF80820 		ldrh	r2, [sp, #8]
 655 008c 4AB9     		cbnz	r2, .L49
 656              		.loc 1 158 0 discriminator 3
 657 008e BDF80A20 		ldrh	r2, [sp, #10]
 658 0092 32B9     		cbnz	r2, .L49
 659              		.loc 1 158 0 discriminator 4
 660 0094 BDF80C20 		ldrh	r2, [sp, #12]
 661 0098 1AB9     		cbnz	r2, .L49
 662              		.loc 1 158 0 discriminator 5
 663 009a BDF80E20 		ldrh	r2, [sp, #14]
 664 009e 012A     		cmp	r2, #1
 665 00a0 5AD0     		beq	.L57
 666              	.L49:
 159:myfuncs.h     ****     // Left side turn
 160:myfuncs.h     ****     if (dig.l3 == 0 && dig.l2 == 1 && dig.l1 == 1 && dig.r1 == 0 && dig.r2 == 0 && dig.r3 == 0) {re
 667              		.loc 1 160 0 is_stmt 1
 668 00a2 8BB9     		cbnz	r3, .L50
 669              		.loc 1 160 0 is_stmt 0 discriminator 1
 670 00a4 BDF80620 		ldrh	r2, [sp, #6]
 671 00a8 012A     		cmp	r2, #1
 672 00aa 0DD1     		bne	.L50
 673              		.loc 1 160 0 discriminator 2
 674 00ac BDF80820 		ldrh	r2, [sp, #8]
 675 00b0 012A     		cmp	r2, #1
 676 00b2 09D1     		bne	.L50
 677              		.loc 1 160 0 discriminator 3
 678 00b4 BDF80A20 		ldrh	r2, [sp, #10]
 679 00b8 32B9     		cbnz	r2, .L50
 680              		.loc 1 160 0 discriminator 4
 681 00ba BDF80C20 		ldrh	r2, [sp, #12]
 682 00be 1AB9     		cbnz	r2, .L50
 683              		.loc 1 160 0 discriminator 5
 684 00c0 BDF80E20 		ldrh	r2, [sp, #14]
 685 00c4 002A     		cmp	r2, #0
 686 00c6 49D0     		beq	.L58
 687              	.L50:
 161:myfuncs.h     ****     if (dig.l3 == 1 && dig.l2 == 1 && dig.l1 == 0 && dig.r1 == 0 && dig.r2 == 0 && dig.r3 == 0) {re
 688              		.loc 1 161 0 is_stmt 1
 689 00c8 012B     		cmp	r3, #1
 690 00ca 0FD1     		bne	.L51
 691              		.loc 1 161 0 is_stmt 0 discriminator 1
 692 00cc BDF80620 		ldrh	r2, [sp, #6]
ARM GAS  C:\Users\ENARMA~1\AppData\Local\Temp\cc1DSOlY.s 			page 16


 693 00d0 012A     		cmp	r2, #1
 694 00d2 0BD1     		bne	.L51
 695              		.loc 1 161 0 discriminator 2
 696 00d4 BDF80820 		ldrh	r2, [sp, #8]
 697 00d8 42B9     		cbnz	r2, .L51
 698              		.loc 1 161 0 discriminator 3
 699 00da BDF80A20 		ldrh	r2, [sp, #10]
 700 00de 2AB9     		cbnz	r2, .L51
 701              		.loc 1 161 0 discriminator 4
 702 00e0 BDF80C20 		ldrh	r2, [sp, #12]
 703 00e4 12B9     		cbnz	r2, .L51
 704              		.loc 1 161 0 discriminator 5
 705 00e6 BDF80E20 		ldrh	r2, [sp, #14]
 706 00ea D2B3     		cbz	r2, .L59
 707              	.L51:
 162:myfuncs.h     ****     if (dig.l3 == 1 && dig.l2 == 0 && dig.l1 == 0 && dig.r1 == 0 && dig.r2 == 0 && dig.r3 == 0) {re
 708              		.loc 1 162 0 is_stmt 1
 709 00ec 012B     		cmp	r3, #1
 710 00ee 0ED1     		bne	.L52
 711              		.loc 1 162 0 is_stmt 0 discriminator 1
 712 00f0 BDF80620 		ldrh	r2, [sp, #6]
 713 00f4 5AB9     		cbnz	r2, .L52
 714              		.loc 1 162 0 discriminator 2
 715 00f6 BDF80820 		ldrh	r2, [sp, #8]
 716 00fa 42B9     		cbnz	r2, .L52
 717              		.loc 1 162 0 discriminator 3
 718 00fc BDF80A20 		ldrh	r2, [sp, #10]
 719 0100 2AB9     		cbnz	r2, .L52
 720              		.loc 1 162 0 discriminator 4
 721 0102 BDF80C20 		ldrh	r2, [sp, #12]
 722 0106 12B9     		cbnz	r2, .L52
 723              		.loc 1 162 0 discriminator 5
 724 0108 BDF80E20 		ldrh	r2, [sp, #14]
 725 010c 62B3     		cbz	r2, .L60
 726              	.L52:
 163:myfuncs.h     ****     // no reflection on all sensonrs
 164:myfuncs.h     ****     if (dig.l3 == 1 && dig.l2 == 1 && dig.l1 == 1 && dig.r1 == 1 && dig.r2 == 1 && dig.r3 == 1) {re
 727              		.loc 1 164 0 is_stmt 1
 728 010e 012B     		cmp	r3, #1
 729 0110 13D1     		bne	.L53
 730              		.loc 1 164 0 is_stmt 0 discriminator 1
 731 0112 BDF80630 		ldrh	r3, [sp, #6]
 732 0116 012B     		cmp	r3, #1
 733 0118 0FD1     		bne	.L53
 734              		.loc 1 164 0 discriminator 2
 735 011a BDF80830 		ldrh	r3, [sp, #8]
 736 011e 012B     		cmp	r3, #1
 737 0120 0BD1     		bne	.L53
 738              		.loc 1 164 0 discriminator 3
 739 0122 BDF80A30 		ldrh	r3, [sp, #10]
 740 0126 012B     		cmp	r3, #1
 741 0128 07D1     		bne	.L53
 742              		.loc 1 164 0 discriminator 4
 743 012a BDF80C30 		ldrh	r3, [sp, #12]
 744 012e 012B     		cmp	r3, #1
 745 0130 03D1     		bne	.L53
 746              		.loc 1 164 0 discriminator 5
ARM GAS  C:\Users\ENARMA~1\AppData\Local\Temp\cc1DSOlY.s 			page 17


 747 0132 BDF80E30 		ldrh	r3, [sp, #14]
 748 0136 012B     		cmp	r3, #1
 749 0138 19D0     		beq	.L61
 750              	.L53:
 165:myfuncs.h     ****     // max reflection
 166:myfuncs.h     ****     
 167:myfuncs.h     ****     if (dig.l1 == 0 && dig.r1 == 0) {return 10;};
 751              		.loc 1 167 0 is_stmt 1
 752 013a BDF80830 		ldrh	r3, [sp, #8]
 753 013e C3B9     		cbnz	r3, .L62
 754              		.loc 1 167 0 is_stmt 0 discriminator 1
 755 0140 BDF80A30 		ldrh	r3, [sp, #10]
 756 0144 C3B1     		cbz	r3, .L63
 168:myfuncs.h     ****     return -6;
 757              		.loc 1 168 0 is_stmt 1
 758 0146 6FF00500 		mvn	r0, #5
 759 014a 16E0     		b	.L46
 760              	.L54:
 154:myfuncs.h     ****     // Right side turn
 761              		.loc 1 154 0
 762 014c 0020     		movs	r0, #0
 763 014e 14E0     		b	.L46
 764              	.L55:
 156:myfuncs.h     ****     if (dig.l3 == 0 && dig.l2 == 0 && dig.l1 == 0 && dig.r1 == 0 && dig.r2 == 1 && dig.r3 == 1) {re
 765              		.loc 1 156 0
 766 0150 0120     		movs	r0, #1
 767 0152 12E0     		b	.L46
 768              	.L56:
 157:myfuncs.h     ****     if (dig.l3 == 0 && dig.l2 == 0 && dig.l1 == 0 && dig.r1 == 0 && dig.r2 == 0 && dig.r3 == 1) {re
 769              		.loc 1 157 0
 770 0154 0220     		movs	r0, #2
 771 0156 10E0     		b	.L46
 772              	.L57:
 158:myfuncs.h     ****     // Left side turn
 773              		.loc 1 158 0
 774 0158 0320     		movs	r0, #3
 775 015a 0EE0     		b	.L46
 776              	.L58:
 160:myfuncs.h     ****     if (dig.l3 == 1 && dig.l2 == 1 && dig.l1 == 0 && dig.r1 == 0 && dig.r2 == 0 && dig.r3 == 0) {re
 777              		.loc 1 160 0
 778 015c 4FF0FF30 		mov	r0, #-1
 779 0160 0BE0     		b	.L46
 780              	.L59:
 161:myfuncs.h     ****     if (dig.l3 == 1 && dig.l2 == 0 && dig.l1 == 0 && dig.r1 == 0 && dig.r2 == 0 && dig.r3 == 0) {re
 781              		.loc 1 161 0
 782 0162 6FF00100 		mvn	r0, #1
 783 0166 08E0     		b	.L46
 784              	.L60:
 162:myfuncs.h     ****     // no reflection on all sensonrs
 785              		.loc 1 162 0
 786 0168 6FF00200 		mvn	r0, #2
 787 016c 05E0     		b	.L46
 788              	.L61:
 164:myfuncs.h     ****     // max reflection
 789              		.loc 1 164 0
 790 016e 0620     		movs	r0, #6
 791 0170 03E0     		b	.L46
ARM GAS  C:\Users\ENARMA~1\AppData\Local\Temp\cc1DSOlY.s 			page 18


 792              	.L62:
 793              		.loc 1 168 0
 794 0172 6FF00500 		mvn	r0, #5
 795 0176 00E0     		b	.L46
 796              	.L63:
 167:myfuncs.h     ****     return -6;
 797              		.loc 1 167 0
 798 0178 0A20     		movs	r0, #10
 799              	.L46:
 169:myfuncs.h     **** }
 800              		.loc 1 169 0
 801 017a 05B0     		add	sp, sp, #20
 802              		.cfi_def_cfa_offset 4
 803              		@ sp needed
 804 017c 5DF804FB 		ldr	pc, [sp], #4
 805              		.cfi_endproc
 806              	.LFE91:
 807              		.size	ReflectorValue, .-ReflectorValue
 808              		.section	.text.FunkyMoves,"ax",%progbits
 809              		.align	2
 810              		.global	FunkyMoves
 811              		.thumb
 812              		.thumb_func
 813              		.type	FunkyMoves, %function
 814              	FunkyMoves:
 815              	.LFB92:
 170:myfuncs.h     **** void FunkyMoves() {
 816              		.loc 1 170 0
 817              		.cfi_startproc
 818              		@ args = 0, pretend = 0, frame = 0
 819              		@ frame_needed = 0, uses_anonymous_args = 0
 820 0000 08B5     		push	{r3, lr}
 821              		.cfi_def_cfa_offset 8
 822              		.cfi_offset 3, -8
 823              		.cfi_offset 14, -4
 171:myfuncs.h     ****     //forward
 172:myfuncs.h     ****     motor_forward(0,0);
 824              		.loc 1 172 0
 825 0002 0021     		movs	r1, #0
 826 0004 0846     		mov	r0, r1
 827 0006 FFF7FEFF 		bl	motor_forward
 828              	.LVL89:
 173:myfuncs.h     ****    
 174:myfuncs.h     ****     if(ReflectorValue() == 0){motor_turn(100,95,0);};
 829              		.loc 1 174 0
 830 000a FFF7FEFF 		bl	ReflectorValue
 831              	.LVL90:
 832 000e 20B9     		cbnz	r0, .L66
 833              		.loc 1 174 0 is_stmt 0 discriminator 1
 834 0010 0022     		movs	r2, #0
 835 0012 5F21     		movs	r1, #95
 836 0014 6420     		movs	r0, #100
 837 0016 FFF7FEFF 		bl	motor_turn
 838              	.LVL91:
 839              	.L66:
 175:myfuncs.h     ****     //right turns
 176:myfuncs.h     ****     if(ReflectorValue() == 1){motor_turn(100,0,0);};
ARM GAS  C:\Users\ENARMA~1\AppData\Local\Temp\cc1DSOlY.s 			page 19


 840              		.loc 1 176 0 is_stmt 1
 841 001a FFF7FEFF 		bl	ReflectorValue
 842              	.LVL92:
 843 001e 0128     		cmp	r0, #1
 844 0020 04D1     		bne	.L67
 845              		.loc 1 176 0 is_stmt 0 discriminator 1
 846 0022 0022     		movs	r2, #0
 847 0024 1146     		mov	r1, r2
 848 0026 6420     		movs	r0, #100
 849 0028 FFF7FEFF 		bl	motor_turn
 850              	.LVL93:
 851              	.L67:
 177:myfuncs.h     ****     if(ReflectorValue() == 2){motor_turn(150,0,0);};
 852              		.loc 1 177 0 is_stmt 1
 853 002c FFF7FEFF 		bl	ReflectorValue
 854              	.LVL94:
 855 0030 0228     		cmp	r0, #2
 856 0032 04D1     		bne	.L68
 857              		.loc 1 177 0 is_stmt 0 discriminator 1
 858 0034 0022     		movs	r2, #0
 859 0036 1146     		mov	r1, r2
 860 0038 9620     		movs	r0, #150
 861 003a FFF7FEFF 		bl	motor_turn
 862              	.LVL95:
 863              	.L68:
 178:myfuncs.h     ****   //  if(ReflectorValue() == 3){motor_turn(100,0,0);};
 179:myfuncs.h     ****     //left turns
 180:myfuncs.h     ****     if(ReflectorValue() == -1){motor_turn(0,100,0);};
 864              		.loc 1 180 0 is_stmt 1
 865 003e FFF7FEFF 		bl	ReflectorValue
 866              	.LVL96:
 867 0042 B0F1FF3F 		cmp	r0, #-1
 868 0046 04D1     		bne	.L69
 869              		.loc 1 180 0 is_stmt 0 discriminator 1
 870 0048 0022     		movs	r2, #0
 871 004a 6421     		movs	r1, #100
 872 004c 1046     		mov	r0, r2
 873 004e FFF7FEFF 		bl	motor_turn
 874              	.LVL97:
 875              	.L69:
 181:myfuncs.h     ****     if(ReflectorValue() == -2){motor_turn(0,150,0);};
 876              		.loc 1 181 0 is_stmt 1
 877 0052 FFF7FEFF 		bl	ReflectorValue
 878              	.LVL98:
 879 0056 10F1020F 		cmn	r0, #2
 880 005a 04D1     		bne	.L65
 881              		.loc 1 181 0 is_stmt 0 discriminator 1
 882 005c 0022     		movs	r2, #0
 883 005e 9621     		movs	r1, #150
 884 0060 1046     		mov	r0, r2
 885 0062 FFF7FEFF 		bl	motor_turn
 886              	.LVL99:
 887              	.L65:
 888 0066 08BD     		pop	{r3, pc}
 889              		.cfi_endproc
 890              	.LFE92:
 891              		.size	FunkyMoves, .-FunkyMoves
ARM GAS  C:\Users\ENARMA~1\AppData\Local\Temp\cc1DSOlY.s 			page 20


 892              		.section	.text.reflectorStop,"ax",%progbits
 893              		.align	2
 894              		.global	reflectorStop
 895              		.thumb
 896              		.thumb_func
 897              		.type	reflectorStop, %function
 898              	reflectorStop:
 899              	.LFB93:
 182:myfuncs.h     ****    // if(ReflectorValue() == -3){motor_turn(0,200,0);};
 183:myfuncs.h     ****     // Lost path move back
 184:myfuncs.h     ****     //if(ReflectorValue() == 6) {motor_backward(50,0);};
 185:myfuncs.h     ****     
 186:myfuncs.h     **** }
 187:myfuncs.h     **** 
 188:myfuncs.h     **** 
 189:myfuncs.h     **** // reflector
 190:myfuncs.h     **** 
 191:myfuncs.h     **** int reflectorStop () {
 900              		.loc 1 191 0 is_stmt 1
 901              		.cfi_startproc
 902              		@ args = 0, pretend = 0, frame = 16
 903              		@ frame_needed = 0, uses_anonymous_args = 0
 904 0000 00B5     		push	{lr}
 905              		.cfi_def_cfa_offset 4
 906              		.cfi_offset 14, -4
 907 0002 85B0     		sub	sp, sp, #20
 908              		.cfi_def_cfa_offset 24
 192:myfuncs.h     ****     struct sensors_ dig;
 193:myfuncs.h     ****     reflectance_digital(&dig); 
 909              		.loc 1 193 0
 910 0004 01A8     		add	r0, sp, #4
 911 0006 FFF7FEFF 		bl	reflectance_digital
 912              	.LVL100:
 194:myfuncs.h     ****     
 195:myfuncs.h     ****     if (dig.l1 == 1 && dig.l2 == 1 && dig.l3 == 1 && dig.r1 == 1 && dig.r2 == 1 && dig.r3 == 1){
 913              		.loc 1 195 0
 914 000a BDF80830 		ldrh	r3, [sp, #8]
 915 000e 012B     		cmp	r3, #1
 916 0010 15D1     		bne	.L74
 917              		.loc 1 195 0 is_stmt 0 discriminator 1
 918 0012 BDF80630 		ldrh	r3, [sp, #6]
 919 0016 012B     		cmp	r3, #1
 920 0018 13D1     		bne	.L75
 921              		.loc 1 195 0 discriminator 2
 922 001a BDF80430 		ldrh	r3, [sp, #4]
 923 001e 012B     		cmp	r3, #1
 924 0020 11D1     		bne	.L76
 925              		.loc 1 195 0 discriminator 3
 926 0022 BDF80A30 		ldrh	r3, [sp, #10]
 927 0026 012B     		cmp	r3, #1
 928 0028 0FD1     		bne	.L77
 929              		.loc 1 195 0 discriminator 4
 930 002a BDF80C30 		ldrh	r3, [sp, #12]
 931 002e 012B     		cmp	r3, #1
 932 0030 0DD1     		bne	.L78
 933              		.loc 1 195 0 discriminator 5
 934 0032 BDF80E30 		ldrh	r3, [sp, #14]
ARM GAS  C:\Users\ENARMA~1\AppData\Local\Temp\cc1DSOlY.s 			page 21


 935 0036 012B     		cmp	r3, #1
 936 0038 0BD0     		beq	.L79
 196:myfuncs.h     ****         return 1;
 197:myfuncs.h     ****     } 
 198:myfuncs.h     ****     
 199:myfuncs.h     ****     return 0;
 937              		.loc 1 199 0 is_stmt 1
 938 003a 0020     		movs	r0, #0
 939 003c 0AE0     		b	.L73
 940              	.L74:
 941 003e 0020     		movs	r0, #0
 942 0040 08E0     		b	.L73
 943              	.L75:
 944 0042 0020     		movs	r0, #0
 945 0044 06E0     		b	.L73
 946              	.L76:
 947 0046 0020     		movs	r0, #0
 948 0048 04E0     		b	.L73
 949              	.L77:
 950 004a 0020     		movs	r0, #0
 951 004c 02E0     		b	.L73
 952              	.L78:
 953 004e 0020     		movs	r0, #0
 954 0050 00E0     		b	.L73
 955              	.L79:
 196:myfuncs.h     ****         return 1;
 956              		.loc 1 196 0
 957 0052 0120     		movs	r0, #1
 958              	.L73:
 200:myfuncs.h     **** }
 959              		.loc 1 200 0
 960 0054 05B0     		add	sp, sp, #20
 961              		.cfi_def_cfa_offset 4
 962              		@ sp needed
 963 0056 5DF804FB 		ldr	pc, [sp], #4
 964              		.cfi_endproc
 965              	.LFE93:
 966              		.size	reflectorStop, .-reflectorStop
 967 005a 00BF     		.section	.text.assigment3,"ax",%progbits
 968              		.align	2
 969              		.global	assigment3
 970              		.thumb
 971              		.thumb_func
 972              		.type	assigment3, %function
 973              	assigment3:
 974              	.LFB94:
 201:myfuncs.h     **** 
 202:myfuncs.h     **** void assigment3 (){
 975              		.loc 1 202 0
 976              		.cfi_startproc
 977              		@ Volatile: function does not return.
 978              		@ args = 0, pretend = 0, frame = 0
 979              		@ frame_needed = 0, uses_anonymous_args = 0
 980 0000 00B5     		push	{lr}
 981              		.cfi_def_cfa_offset 4
 982              		.cfi_offset 14, -4
 983 0002 83B0     		sub	sp, sp, #12
ARM GAS  C:\Users\ENARMA~1\AppData\Local\Temp\cc1DSOlY.s 			page 22


 984              		.cfi_def_cfa_offset 16
 203:myfuncs.h     ****     
 204:myfuncs.h     ****     reflectance_start();
 985              		.loc 1 204 0
 986 0004 FFF7FEFF 		bl	reflectance_start
 987              	.LVL101:
 205:myfuncs.h     ****     reflectance_set_threshold(9000, 9000, 11000, 11000, 9000, 9000); // set center sensor threshold
 988              		.loc 1 205 0
 989 0008 42F22830 		movw	r0, #9000
 990 000c 0190     		str	r0, [sp, #4]
 991 000e 0090     		str	r0, [sp]
 992 0010 42F6F823 		movw	r3, #11000
 993 0014 1A46     		mov	r2, r3
 994 0016 0146     		mov	r1, r0
 995 0018 FFF7FEFF 		bl	reflectance_set_threshold
 996              	.LVL102:
 206:myfuncs.h     ****     IR_Start();
 997              		.loc 1 206 0
 998 001c FFF7FEFF 		bl	IR_Start
 999              	.LVL103:
 207:myfuncs.h     ****     IR_flush();
 1000              		.loc 1 207 0
 1001 0020 FFF7FEFF 		bl	IR_flush
 1002              	.LVL104:
 208:myfuncs.h     ****     motor_start();
 1003              		.loc 1 208 0
 1004 0024 FFF7FEFF 		bl	motor_start
 1005              	.LVL105:
 209:myfuncs.h     ****     Beep(1000, 150);
 1006              		.loc 1 209 0
 1007 0028 9621     		movs	r1, #150
 1008 002a 4FF47A70 		mov	r0, #1000
 1009 002e FFF7FEFF 		bl	Beep
 1010              	.LVL106:
 1011              	.L82:
 210:myfuncs.h     ****     
 211:myfuncs.h     ****     
 212:myfuncs.h     ****     while (1) {
 213:myfuncs.h     ****         
 214:myfuncs.h     ****         if (SW1_Read()==0) {
 1012              		.loc 1 214 0
 1013 0032 FFF7FEFF 		bl	SW1_Read
 1014              	.LVL107:
 1015 0036 0028     		cmp	r0, #0
 1016 0038 FBD1     		bne	.L82
 215:myfuncs.h     ****             Beep(1000, 150);
 1017              		.loc 1 215 0
 1018 003a 9621     		movs	r1, #150
 1019 003c 4FF47A70 		mov	r0, #1000
 1020 0040 FFF7FEFF 		bl	Beep
 1021              	.LVL108:
 216:myfuncs.h     ****             vTaskDelay(100);           
 1022              		.loc 1 216 0
 1023 0044 6420     		movs	r0, #100
 1024 0046 FFF7FEFF 		bl	vTaskDelay
 1025              	.LVL109:
 217:myfuncs.h     ****             motor_forward(0,0);
ARM GAS  C:\Users\ENARMA~1\AppData\Local\Temp\cc1DSOlY.s 			page 23


 1026              		.loc 1 217 0
 1027 004a 0021     		movs	r1, #0
 1028 004c 0846     		mov	r0, r1
 1029 004e FFF7FEFF 		bl	motor_forward
 1030              	.LVL110:
 218:myfuncs.h     ****             
 219:myfuncs.h     ****             motor_forward(100,0);
 1031              		.loc 1 219 0
 1032 0052 0021     		movs	r1, #0
 1033 0054 6420     		movs	r0, #100
 1034 0056 FFF7FEFF 		bl	motor_forward
 1035              	.LVL111:
 220:myfuncs.h     ****             if (reflectorStop() == 1) {
 1036              		.loc 1 220 0
 1037 005a FFF7FEFF 		bl	reflectorStop
 1038              	.LVL112:
 1039 005e 0128     		cmp	r0, #1
 1040 0060 E7D1     		bne	.L82
 221:myfuncs.h     ****                 //int x = 0;
 222:myfuncs.h     ****                 motor_forward(0,0);
 1041              		.loc 1 222 0
 1042 0062 0021     		movs	r1, #0
 1043 0064 0846     		mov	r0, r1
 1044 0066 FFF7FEFF 		bl	motor_forward
 1045              	.LVL113:
 223:myfuncs.h     ****                 IR_wait();
 1046              		.loc 1 223 0
 1047 006a FFF7FEFF 		bl	IR_wait
 1048              	.LVL114:
 1049 006e E0E7     		b	.L82
 1050              		.cfi_endproc
 1051              	.LFE94:
 1052              		.size	assigment3, .-assigment3
 1053              		.section	.text.zmain,"ax",%progbits
 1054              		.align	2
 1055              		.global	zmain
 1056              		.thumb
 1057              		.thumb_func
 1058              		.type	zmain, %function
 1059              	zmain:
 1060              	.LFB95:
 1061              		.file 2 "main.c"
   1:main.c        **** /**
   2:main.c        **** * @mainpage ZumoBot Project
   3:main.c        **** * @brief    You can make your own ZumoBot with various sensors.
   4:main.c        **** * @details  <br><br>
   5:main.c        ****     <p>
   6:main.c        ****     <B>General</B><br>
   7:main.c        ****     You will use Pololu Zumo Shields for your robot project with CY8CKIT-059(PSoC 5LP) from Cypress
   8:main.c        ****     library has basic methods of various sensors and communications so that you can make what you w
   9:main.c        ****     <br><br>
  10:main.c        ****     </p>
  11:main.c        ****     
  12:main.c        ****     <p>
  13:main.c        ****     <B>Sensors</B><br>
  14:main.c        ****     &nbsp;Included: <br>
  15:main.c        ****         &nbsp;&nbsp;&nbsp;&nbsp;LSM303D: Accelerometer & Magnetometer<br>
ARM GAS  C:\Users\ENARMA~1\AppData\Local\Temp\cc1DSOlY.s 			page 24


  16:main.c        ****         &nbsp;&nbsp;&nbsp;&nbsp;L3GD20H: Gyroscope<br>
  17:main.c        ****         &nbsp;&nbsp;&nbsp;&nbsp;Reflectance sensor<br>
  18:main.c        ****         &nbsp;&nbsp;&nbsp;&nbsp;Motors
  19:main.c        ****     &nbsp;Wii nunchuck<br>
  20:main.c        ****     &nbsp;TSOP-2236: IR Receiver<br>
  21:main.c        ****     &nbsp;HC-SR04: Ultrasonic sensor<br>
  22:main.c        ****     &nbsp;APDS-9301: Ambient light sensor<br>
  23:main.c        ****     &nbsp;IR LED <br><br><br>
  24:main.c        ****     </p>
  25:main.c        ****     
  26:main.c        ****     <p>
  27:main.c        ****     <B>Communication</B><br>
  28:main.c        ****     I2C, UART, Serial<br>
  29:main.c        ****     </p>
  30:main.c        **** */
  31:main.c        **** 
  32:main.c        **** #include <project.h>
  33:main.c        **** #include <stdio.h>
  34:main.c        **** #include "FreeRTOS.h"
  35:main.c        **** #include "task.h"
  36:main.c        **** #include "Motor.h"
  37:main.c        **** #include "Ultra.h"
  38:main.c        **** #include "Nunchuk.h"
  39:main.c        **** #include "Reflectance.h"
  40:main.c        **** #include "Gyro.h"
  41:main.c        **** #include "Accel_magnet.h"
  42:main.c        **** #include "LSM303D.h"
  43:main.c        **** #include "IR.h"
  44:main.c        **** #include "Beep.h"
  45:main.c        **** #include "mqtt_sender.h"
  46:main.c        **** #include <time.h>
  47:main.c        **** #include <sys/time.h>
  48:main.c        **** #include "serial1.h"
  49:main.c        **** #include <unistd.h>
  50:main.c        **** #include "myfuncs.h"
  51:main.c        **** 
  52:main.c        **** /**
  53:main.c        ****  * @file    main.c
  54:main.c        ****  * @brief   
  55:main.c        ****  * @details  ** Enable global interrupt since Zumo library uses interrupts. **<br>&nbsp;&nbsp;&nbsp
  56:main.c        **** */
  57:main.c        **** #if 1
  58:main.c        **** void zmain(void) {
 1062              		.loc 2 58 0
 1063              		.cfi_startproc
 1064              		@ args = 0, pretend = 0, frame = 0
 1065              		@ frame_needed = 0, uses_anonymous_args = 0
 1066 0000 10B5     		push	{r4, lr}
 1067              		.cfi_def_cfa_offset 8
 1068              		.cfi_offset 4, -8
 1069              		.cfi_offset 14, -4
 1070 0002 82B0     		sub	sp, sp, #8
 1071              		.cfi_def_cfa_offset 16
 1072              	.LVL115:
  59:main.c        ****     uint afterLine = 350;
  60:main.c        ****     uint leftMotor = 100;
  61:main.c        ****     uint rightMotor = 95;
ARM GAS  C:\Users\ENARMA~1\AppData\Local\Temp\cc1DSOlY.s 			page 25


  62:main.c        ****     reflectance_start();
 1073              		.loc 2 62 0
 1074 0004 FFF7FEFF 		bl	reflectance_start
 1075              	.LVL116:
  63:main.c        ****     reflectance_set_threshold(11000,11000,11000,11000,11000,11000);
 1076              		.loc 2 63 0
 1077 0008 42F6F820 		movw	r0, #11000
 1078 000c 0190     		str	r0, [sp, #4]
 1079 000e 0090     		str	r0, [sp]
 1080 0010 0346     		mov	r3, r0
 1081 0012 0246     		mov	r2, r0
 1082 0014 0146     		mov	r1, r0
 1083 0016 FFF7FEFF 		bl	reflectance_set_threshold
 1084              	.LVL117:
  64:main.c        ****     motor_start();
 1085              		.loc 2 64 0
 1086 001a FFF7FEFF 		bl	motor_start
 1087              	.LVL118:
  65:main.c        ****     motor_forward(0,0);
 1088              		.loc 2 65 0
 1089 001e 0021     		movs	r1, #0
 1090 0020 0846     		mov	r0, r1
 1091 0022 FFF7FEFF 		bl	motor_forward
 1092              	.LVL119:
  66:main.c        ****     Beep(200,180);
 1093              		.loc 2 66 0
 1094 0026 B421     		movs	r1, #180
 1095 0028 C820     		movs	r0, #200
 1096 002a FFF7FEFF 		bl	Beep
 1097              	.LVL120:
 1098              	.L87:
  67:main.c        **** 
  68:main.c        ****     while(SW1_Read() == 1){}  // Whaiting for button to start program
 1099              		.loc 2 68 0 discriminator 1
 1100 002e FFF7FEFF 		bl	SW1_Read
 1101              	.LVL121:
 1102 0032 0128     		cmp	r0, #1
 1103 0034 FBD0     		beq	.L87
  69:main.c        ****     vTaskDelay(1000);
 1104              		.loc 2 69 0
 1105 0036 4FF47A70 		mov	r0, #1000
 1106 003a FFF7FEFF 		bl	vTaskDelay
 1107              	.LVL122:
  70:main.c        ****     Beep(200,180);
 1108              		.loc 2 70 0
 1109 003e B421     		movs	r1, #180
 1110 0040 C820     		movs	r0, #200
 1111 0042 FFF7FEFF 		bl	Beep
 1112              	.LVL123:
  71:main.c        ****     motor_turn(leftMotor, rightMotor, 500);
 1113              		.loc 2 71 0
 1114 0046 4FF4FA72 		mov	r2, #500
 1115 004a 5F21     		movs	r1, #95
 1116 004c 6420     		movs	r0, #100
 1117 004e FFF7FEFF 		bl	motor_turn
 1118              	.LVL124:
 1119              	.L88:
ARM GAS  C:\Users\ENARMA~1\AppData\Local\Temp\cc1DSOlY.s 			page 26


  72:main.c        ****     while(1) {
  73:main.c        ****          motor_turn(100,95,0);
 1120              		.loc 2 73 0
 1121 0052 0022     		movs	r2, #0
 1122 0054 5F21     		movs	r1, #95
 1123 0056 6420     		movs	r0, #100
 1124 0058 FFF7FEFF 		bl	motor_turn
 1125              	.LVL125:
  74:main.c        ****          if(ReflectorValue() == 6) {
 1126              		.loc 2 74 0
 1127 005c FFF7FEFF 		bl	ReflectorValue
 1128              	.LVL126:
 1129 0060 0628     		cmp	r0, #6
 1130 0062 F6D1     		bne	.L88
  75:main.c        ****              break;
  76:main.c        ****          }
  77:main.c        ****     }
  78:main.c        ****     motor_forward(0,0);
 1131              		.loc 2 78 0
 1132 0064 0021     		movs	r1, #0
 1133 0066 0846     		mov	r0, r1
 1134 0068 FFF7FEFF 		bl	motor_forward
 1135              	.LVL127:
  79:main.c        ****     vTaskDelay(1000);
 1136              		.loc 2 79 0
 1137 006c 4FF47A70 		mov	r0, #1000
 1138 0070 FFF7FEFF 		bl	vTaskDelay
 1139              	.LVL128:
  80:main.c        ****     Beep(200,180);
 1140              		.loc 2 80 0
 1141 0074 B421     		movs	r1, #180
 1142 0076 C820     		movs	r0, #200
 1143 0078 FFF7FEFF 		bl	Beep
 1144              	.LVL129:
  81:main.c        ****     motor_turn(leftMotor,rightMotor,afterLine);
 1145              		.loc 2 81 0
 1146 007c 4FF4AF72 		mov	r2, #350
 1147 0080 5F21     		movs	r1, #95
 1148 0082 6420     		movs	r0, #100
 1149 0084 FFF7FEFF 		bl	motor_turn
 1150              	.LVL130:
 1151              	.L89:
  82:main.c        ****     while(1){
  83:main.c        ****     motor_hardTurn(0,100,100,0);
 1152              		.loc 2 83 0
 1153 0088 0023     		movs	r3, #0
 1154 008a 6422     		movs	r2, #100
 1155 008c 1146     		mov	r1, r2
 1156 008e 1846     		mov	r0, r3
 1157 0090 FFF7FEFF 		bl	motor_hardTurn
 1158              	.LVL131:
  84:main.c        ****     if (ReflectorValue() == 0){
 1159              		.loc 2 84 0
 1160 0094 FFF7FEFF 		bl	ReflectorValue
 1161              	.LVL132:
 1162 0098 0028     		cmp	r0, #0
 1163 009a F5D1     		bne	.L89
ARM GAS  C:\Users\ENARMA~1\AppData\Local\Temp\cc1DSOlY.s 			page 27


  85:main.c        ****         break;
  86:main.c        ****         }
  87:main.c        ****     }
  88:main.c        ****     motor_forward(0,0);
 1164              		.loc 2 88 0
 1165 009c 0021     		movs	r1, #0
 1166 009e 0846     		mov	r0, r1
 1167 00a0 FFF7FEFF 		bl	motor_forward
 1168              	.LVL133:
 1169              	.L90:
  89:main.c        ****     while(1) {
  90:main.c        ****             motor_turn(100,95,0);
 1170              		.loc 2 90 0
 1171 00a4 0022     		movs	r2, #0
 1172 00a6 5F21     		movs	r1, #95
 1173 00a8 6420     		movs	r0, #100
 1174 00aa FFF7FEFF 		bl	motor_turn
 1175              	.LVL134:
  91:main.c        ****             if (ReflectorValue() == 6) {break;}
 1176              		.loc 2 91 0
 1177 00ae FFF7FEFF 		bl	ReflectorValue
 1178              	.LVL135:
 1179 00b2 0628     		cmp	r0, #6
 1180 00b4 F6D1     		bne	.L90
  92:main.c        ****     }
  93:main.c        ****         motor_forward(0,0);
 1181              		.loc 2 93 0
 1182 00b6 0021     		movs	r1, #0
 1183 00b8 0846     		mov	r0, r1
 1184 00ba FFF7FEFF 		bl	motor_forward
 1185              	.LVL136:
  94:main.c        ****         vTaskDelay(1000);
 1186              		.loc 2 94 0
 1187 00be 4FF47A70 		mov	r0, #1000
 1188 00c2 FFF7FEFF 		bl	vTaskDelay
 1189              	.LVL137:
  95:main.c        ****         Beep(200,180);
 1190              		.loc 2 95 0
 1191 00c6 B421     		movs	r1, #180
 1192 00c8 C820     		movs	r0, #200
 1193 00ca FFF7FEFF 		bl	Beep
 1194              	.LVL138:
  96:main.c        ****         motor_turn(leftMotor,rightMotor,afterLine);
 1195              		.loc 2 96 0
 1196 00ce 4FF4AF72 		mov	r2, #350
 1197 00d2 5F21     		movs	r1, #95
 1198 00d4 6420     		movs	r0, #100
 1199 00d6 FFF7FEFF 		bl	motor_turn
 1200              	.LVL139:
 1201              	.L91:
  97:main.c        ****         while(1) {
  98:main.c        ****             motor_hardTurn(1,100,100,0);
 1202              		.loc 2 98 0
 1203 00da 0023     		movs	r3, #0
 1204 00dc 6422     		movs	r2, #100
 1205 00de 1146     		mov	r1, r2
 1206 00e0 0120     		movs	r0, #1
ARM GAS  C:\Users\ENARMA~1\AppData\Local\Temp\cc1DSOlY.s 			page 28


 1207 00e2 FFF7FEFF 		bl	motor_hardTurn
 1208              	.LVL140:
  99:main.c        ****             if (ReflectorValue() == 10) {
 1209              		.loc 2 99 0
 1210 00e6 FFF7FEFF 		bl	ReflectorValue
 1211              	.LVL141:
 1212 00ea 0A28     		cmp	r0, #10
 1213 00ec F5D1     		bne	.L91
 1214              	.L92:
 100:main.c        ****                 break;}
 101:main.c        ****         }
 102:main.c        ****         while(1) {
 103:main.c        ****             motor_hardTurn(1,100,100,0);
 1215              		.loc 2 103 0
 1216 00ee 0023     		movs	r3, #0
 1217 00f0 6422     		movs	r2, #100
 1218 00f2 1146     		mov	r1, r2
 1219 00f4 0120     		movs	r0, #1
 1220 00f6 FFF7FEFF 		bl	motor_hardTurn
 1221              	.LVL142:
 104:main.c        ****             if (ReflectorValue() == 0) {break;}
 1222              		.loc 2 104 0
 1223 00fa FFF7FEFF 		bl	ReflectorValue
 1224              	.LVL143:
 1225 00fe 0028     		cmp	r0, #0
 1226 0100 F5D1     		bne	.L92
 105:main.c        ****         }
 106:main.c        ****         motor_forward(0,0);
 1227              		.loc 2 106 0
 1228 0102 0021     		movs	r1, #0
 1229 0104 0846     		mov	r0, r1
 1230 0106 FFF7FEFF 		bl	motor_forward
 1231              	.LVL144:
 1232              	.L93:
 107:main.c        ****         while(1) {
 108:main.c        ****                 motor_turn(100,95,0);
 1233              		.loc 2 108 0
 1234 010a 0022     		movs	r2, #0
 1235 010c 5F21     		movs	r1, #95
 1236 010e 6420     		movs	r0, #100
 1237 0110 FFF7FEFF 		bl	motor_turn
 1238              	.LVL145:
 109:main.c        ****                 if (ReflectorValue() == 6) {break;}
 1239              		.loc 2 109 0
 1240 0114 FFF7FEFF 		bl	ReflectorValue
 1241              	.LVL146:
 1242 0118 0628     		cmp	r0, #6
 1243 011a F6D1     		bne	.L93
 110:main.c        ****         }
 111:main.c        ****        
 112:main.c        ****     motor_forward(0,0);
 1244              		.loc 2 112 0
 1245 011c 0021     		movs	r1, #0
 1246 011e 0846     		mov	r0, r1
 1247 0120 FFF7FEFF 		bl	motor_forward
 1248              	.LVL147:
 113:main.c        ****         vTaskDelay(1000);
ARM GAS  C:\Users\ENARMA~1\AppData\Local\Temp\cc1DSOlY.s 			page 29


 1249              		.loc 2 113 0
 1250 0124 4FF47A70 		mov	r0, #1000
 1251 0128 FFF7FEFF 		bl	vTaskDelay
 1252              	.LVL148:
 114:main.c        ****         Beep(200,180);
 1253              		.loc 2 114 0
 1254 012c B421     		movs	r1, #180
 1255 012e C820     		movs	r0, #200
 1256 0130 FFF7FEFF 		bl	Beep
 1257              	.LVL149:
 115:main.c        ****         motor_turn(leftMotor,rightMotor,afterLine);
 1258              		.loc 2 115 0
 1259 0134 4FF4AF72 		mov	r2, #350
 1260 0138 5F21     		movs	r1, #95
 1261 013a 6420     		movs	r0, #100
 1262 013c FFF7FEFF 		bl	motor_turn
 1263              	.LVL150:
 1264              	.L94:
 116:main.c        ****         while(1) {
 117:main.c        ****             motor_hardTurn(1,100,100,0);
 1265              		.loc 2 117 0
 1266 0140 0023     		movs	r3, #0
 1267 0142 6422     		movs	r2, #100
 1268 0144 1146     		mov	r1, r2
 1269 0146 0120     		movs	r0, #1
 1270 0148 FFF7FEFF 		bl	motor_hardTurn
 1271              	.LVL151:
 118:main.c        ****             if (ReflectorValue() == 10) {
 1272              		.loc 2 118 0
 1273 014c FFF7FEFF 		bl	ReflectorValue
 1274              	.LVL152:
 1275 0150 0A28     		cmp	r0, #10
 1276 0152 F5D1     		bne	.L94
 1277              	.L95:
 119:main.c        ****                 break;}
 120:main.c        ****         }
 121:main.c        ****         while(1) {
 122:main.c        ****             motor_hardTurn(1,100,100,0);
 1278              		.loc 2 122 0
 1279 0154 0023     		movs	r3, #0
 1280 0156 6422     		movs	r2, #100
 1281 0158 1146     		mov	r1, r2
 1282 015a 0120     		movs	r0, #1
 1283 015c FFF7FEFF 		bl	motor_hardTurn
 1284              	.LVL153:
 123:main.c        ****             if (ReflectorValue() == 0) {break;}
 1285              		.loc 2 123 0
 1286 0160 FFF7FEFF 		bl	ReflectorValue
 1287              	.LVL154:
 1288 0164 0028     		cmp	r0, #0
 1289 0166 F5D1     		bne	.L95
 124:main.c        ****         }
 125:main.c        ****         motor_forward(0,0);
 1290              		.loc 2 125 0
 1291 0168 0021     		movs	r1, #0
 1292 016a 0846     		mov	r0, r1
 1293 016c FFF7FEFF 		bl	motor_forward
ARM GAS  C:\Users\ENARMA~1\AppData\Local\Temp\cc1DSOlY.s 			page 30


 1294              	.LVL155:
 1295              	.L96:
 126:main.c        ****         while(1) {
 127:main.c        ****                 motor_turn(100,95,0);
 1296              		.loc 2 127 0
 1297 0170 0022     		movs	r2, #0
 1298 0172 5F21     		movs	r1, #95
 1299 0174 6420     		movs	r0, #100
 1300 0176 FFF7FEFF 		bl	motor_turn
 1301              	.LVL156:
 128:main.c        ****                 if (ReflectorValue() == 6) {break;}
 1302              		.loc 2 128 0
 1303 017a FFF7FEFF 		bl	ReflectorValue
 1304              	.LVL157:
 1305 017e 0628     		cmp	r0, #6
 1306 0180 F6D1     		bne	.L96
 129:main.c        ****         }
 130:main.c        ****         vTaskDelay(500);
 1307              		.loc 2 130 0
 1308 0182 4FF4FA70 		mov	r0, #500
 1309 0186 FFF7FEFF 		bl	vTaskDelay
 1310              	.LVL158:
 131:main.c        ****     motor_hardTurn(1,150,150,2000);
 1311              		.loc 2 131 0
 1312 018a 4FF4FA63 		mov	r3, #2000
 1313 018e 9622     		movs	r2, #150
 1314 0190 1146     		mov	r1, r2
 1315 0192 0120     		movs	r0, #1
 1316 0194 FFF7FEFF 		bl	motor_hardTurn
 1317              	.LVL159:
 1318              	.LBB5:
 132:main.c        ****     for (int i = 0; i < 3; i++) {
 1319              		.loc 2 132 0
 1320 0198 0024     		movs	r4, #0
 1321 019a 08E0     		b	.L97
 1322              	.LVL160:
 1323              	.L98:
 133:main.c        ****         Beep(500,200);
 1324              		.loc 2 133 0 discriminator 3
 1325 019c C821     		movs	r1, #200
 1326 019e 4FF4FA70 		mov	r0, #500
 1327 01a2 FFF7FEFF 		bl	Beep
 1328              	.LVL161:
 134:main.c        ****         vTaskDelay(100);
 1329              		.loc 2 134 0 discriminator 3
 1330 01a6 6420     		movs	r0, #100
 1331 01a8 FFF7FEFF 		bl	vTaskDelay
 1332              	.LVL162:
 132:main.c        ****     for (int i = 0; i < 3; i++) {
 1333              		.loc 2 132 0 discriminator 3
 1334 01ac 0134     		adds	r4, r4, #1
 1335              	.LVL163:
 1336              	.L97:
 132:main.c        ****     for (int i = 0; i < 3; i++) {
 1337              		.loc 2 132 0 is_stmt 0 discriminator 1
 1338 01ae 022C     		cmp	r4, #2
 1339 01b0 F4DD     		ble	.L98
ARM GAS  C:\Users\ENARMA~1\AppData\Local\Temp\cc1DSOlY.s 			page 31


 1340              	.LBE5:
 135:main.c        ****     }
 136:main.c        ****     motor_forward(0,0);
 1341              		.loc 2 136 0 is_stmt 1
 1342 01b2 0021     		movs	r1, #0
 1343 01b4 0846     		mov	r0, r1
 1344 01b6 FFF7FEFF 		bl	motor_forward
 1345              	.LVL164:
 137:main.c        ****     motor_stop();
 1346              		.loc 2 137 0
 1347 01ba FFF7FEFF 		bl	motor_stop
 1348              	.LVL165:
 1349              	.L99:
 1350 01be FEE7     		b	.L99
 1351              		.cfi_endproc
 1352              	.LFE95:
 1353              		.size	zmain, .-zmain
 1354              		.section	.rodata.str1.4,"aMS",%progbits,1
 1355              		.align	2
 1356              	.LC0:
 1357 0000 0A256C69 		.ascii	"\012%li: Battery volatage is: %.2fv\000"
 1357      3A204261 
 1357      74746572 
 1357      7920766F 
 1357      6C617461 
 1358 0021 000000   		.space	3
 1359              	.LC1:
 1360 0024 0A576861 		.ascii	"\012What is your age? \000"
 1360      74206973 
 1360      20796F75 
 1360      72206167 
 1360      653F2000 
 1361              	.LC2:
 1362 0038 256400   		.ascii	"%d\000"
 1363 003b 00       		.space	1
 1364              	.LC3:
 1365 003c 53757065 		.ascii	"Super fast dude!\000"
 1365      72206661 
 1365      73742064 
 1365      75646521 
 1365      00
 1366 004d 000000   		.space	3
 1367              	.LC4:
 1368 0050 62652071 		.ascii	"be quick or be dead\000"
 1368      7569636B 
 1368      206F7220 
 1368      62652064 
 1368      65616400 
 1369              	.LC5:
 1370 0064 5374696C 		.ascii	"Still going strong\000"
 1370      6C20676F 
 1370      696E6720 
 1370      7374726F 
 1370      6E6700
 1371 0077 00       		.space	1
 1372              	.LC6:
 1373 0078 5365206D 		.ascii	"Se mdeiocre.\000"
ARM GAS  C:\Users\ENARMA~1\AppData\Local\Temp\cc1DSOlY.s 			page 32


 1373      6465696F 
 1373      6372652E 
 1373      00
 1374 0085 000000   		.space	3
 1375              	.LC7:
 1376 0088 796F7527 		.ascii	"you're so average.\000"
 1376      72652073 
 1376      6F206176 
 1376      65726167 
 1376      652E00
 1377 009b 00       		.space	1
 1378              	.LC8:
 1379 009c 596F7520 		.ascii	"You are doing ok for your age.\000"
 1379      61726520 
 1379      646F696E 
 1379      67206F6B 
 1379      20666F72 
 1380 00bb 00       		.space	1
 1381              	.LC9:
 1382 00bc 4D792067 		.ascii	"My granny is faster than you!\000"
 1382      72616E6E 
 1382      79206973 
 1382      20666173 
 1382      74657220 
 1383 00da 0000     		.space	2
 1384              	.LC10:
 1385 00dc 48617665 		.ascii	"Have you been smoking something illegal?\000"
 1385      20796F75 
 1385      20626565 
 1385      6E20736D 
 1385      6F6B696E 
 1386 0105 000000   		.space	3
 1387              	.LC11:
 1388 0108 446F2074 		.ascii	"Do they still allow you to drive?\000"
 1388      68657920 
 1388      7374696C 
 1388      6C20616C 
 1388      6C6F7720 
 1389              		.text
 1390              	.Letext0:
 1391              		.file 3 "c:\\program files (x86)\\cypress\\psoc creator\\4.2\\psoc creator\\import\\gnu\\arm\\5.4.
 1392              		.file 4 "c:\\program files (x86)\\cypress\\psoc creator\\4.2\\psoc creator\\import\\gnu\\arm\\5.4.
 1393              		.file 5 "Generated_Source\\PSoC5/cytypes.h"
 1394              		.file 6 "c:\\program files (x86)\\cypress\\psoc creator\\4.2\\psoc creator\\import\\gnu\\arm\\5.4.
 1395              		.file 7 "..\\FreeRTOS\\Source\\portable\\GCC\\ARM_CM3/portmacro.h"
 1396              		.file 8 ".\\ZumoLibrary/Reflectance.h"
 1397              		.file 9 ".\\ZumoLibrary/LSM303D.h"
 1398              		.file 10 "Generated_Source\\PSoC5/BatteryLed.h"
 1399              		.file 11 "..\\FreeRTOS\\Source\\include/task.h"
 1400              		.file 12 "Generated_Source\\PSoC5/ADC_Battery.h"
 1401              		.file 13 "c:\\program files (x86)\\cypress\\psoc creator\\4.2\\psoc creator\\import\\gnu\\arm\\5.4
 1402              		.file 14 ".\\ZumoLibrary/Motor.h"
 1403              		.file 15 "c:\\program files (x86)\\cypress\\psoc creator\\4.2\\psoc creator\\import\\gnu\\arm\\5.4
 1404              		.file 16 "Generated_Source\\PSoC5/MotorDirLeft.h"
 1405              		.file 17 "Generated_Source\\PSoC5/MotorDirRight.h"
 1406              		.file 18 "Generated_Source\\PSoC5/PWM.h"
 1407              		.file 19 ".\\ZumoLibrary/IR.h"
ARM GAS  C:\Users\ENARMA~1\AppData\Local\Temp\cc1DSOlY.s 			page 33


 1408              		.file 20 ".\\ZumoLibrary/Beep.h"
 1409              		.file 21 "Generated_Source\\PSoC5/SW1.h"
 1410              		.file 22 "Generated_Source\\PSoC5/core_cm3.h"